ARM GAS  /tmp/cc1emfwg.s 			page 1


   1              		.cpu cortex-m4
   2              		.arch armv7e-m
   3              		.fpu fpv4-sp-d16
   4              		.eabi_attribute 27, 1
   5              		.eabi_attribute 28, 1
   6              		.eabi_attribute 20, 1
   7              		.eabi_attribute 21, 1
   8              		.eabi_attribute 23, 3
   9              		.eabi_attribute 24, 1
  10              		.eabi_attribute 25, 1
  11              		.eabi_attribute 26, 1
  12              		.eabi_attribute 30, 1
  13              		.eabi_attribute 34, 1
  14              		.eabi_attribute 18, 4
  15              		.file	"stm32l4xx_hal_dac.c"
  16              		.text
  17              	.Ltext0:
  18              		.cfi_sections	.debug_frame
  19              		.file 1 "stm/stm32l4xx/STM32L4xx_HAL_Driver/Src/stm32l4xx_hal_dac.c"
  20              		.section	.text.HAL_DAC_MspInit,"ax",%progbits
  21              		.align	1
  22              		.weak	HAL_DAC_MspInit
  23              		.syntax unified
  24              		.thumb
  25              		.thumb_func
  27              	HAL_DAC_MspInit:
  28              	.LVL0:
  29              	.LFB290:
   1:stm/stm32l4xx/STM32L4xx_HAL_Driver/Src/stm32l4xx_hal_dac.c **** /**
   2:stm/stm32l4xx/STM32L4xx_HAL_Driver/Src/stm32l4xx_hal_dac.c ****   ******************************************************************************
   3:stm/stm32l4xx/STM32L4xx_HAL_Driver/Src/stm32l4xx_hal_dac.c ****   * @file    stm32l4xx_hal_dac.c
   4:stm/stm32l4xx/STM32L4xx_HAL_Driver/Src/stm32l4xx_hal_dac.c ****   * @author  MCD Application Team
   5:stm/stm32l4xx/STM32L4xx_HAL_Driver/Src/stm32l4xx_hal_dac.c ****   * @brief   DAC HAL module driver.
   6:stm/stm32l4xx/STM32L4xx_HAL_Driver/Src/stm32l4xx_hal_dac.c ****   *         This file provides firmware functions to manage the following
   7:stm/stm32l4xx/STM32L4xx_HAL_Driver/Src/stm32l4xx_hal_dac.c ****   *         functionalities of the Digital to Analog Converter (DAC) peripheral:
   8:stm/stm32l4xx/STM32L4xx_HAL_Driver/Src/stm32l4xx_hal_dac.c ****   *           + Initialization and de-initialization functions
   9:stm/stm32l4xx/STM32L4xx_HAL_Driver/Src/stm32l4xx_hal_dac.c ****   *           + Peripheral Control functions
  10:stm/stm32l4xx/STM32L4xx_HAL_Driver/Src/stm32l4xx_hal_dac.c ****   *           + Peripheral State and Errors functions
  11:stm/stm32l4xx/STM32L4xx_HAL_Driver/Src/stm32l4xx_hal_dac.c ****   *
  12:stm/stm32l4xx/STM32L4xx_HAL_Driver/Src/stm32l4xx_hal_dac.c ****   *
  13:stm/stm32l4xx/STM32L4xx_HAL_Driver/Src/stm32l4xx_hal_dac.c ****   ******************************************************************************
  14:stm/stm32l4xx/STM32L4xx_HAL_Driver/Src/stm32l4xx_hal_dac.c ****   * @attention
  15:stm/stm32l4xx/STM32L4xx_HAL_Driver/Src/stm32l4xx_hal_dac.c ****   *
  16:stm/stm32l4xx/STM32L4xx_HAL_Driver/Src/stm32l4xx_hal_dac.c ****   * Copyright (c) 2017 STMicroelectronics.
  17:stm/stm32l4xx/STM32L4xx_HAL_Driver/Src/stm32l4xx_hal_dac.c ****   * All rights reserved.
  18:stm/stm32l4xx/STM32L4xx_HAL_Driver/Src/stm32l4xx_hal_dac.c ****   *
  19:stm/stm32l4xx/STM32L4xx_HAL_Driver/Src/stm32l4xx_hal_dac.c ****   * This software is licensed under terms that can be found in the LICENSE file
  20:stm/stm32l4xx/STM32L4xx_HAL_Driver/Src/stm32l4xx_hal_dac.c ****   * in the root directory of this software component.
  21:stm/stm32l4xx/STM32L4xx_HAL_Driver/Src/stm32l4xx_hal_dac.c ****   * If no LICENSE file comes with this software, it is provided AS-IS.
  22:stm/stm32l4xx/STM32L4xx_HAL_Driver/Src/stm32l4xx_hal_dac.c ****   *
  23:stm/stm32l4xx/STM32L4xx_HAL_Driver/Src/stm32l4xx_hal_dac.c ****   ******************************************************************************
  24:stm/stm32l4xx/STM32L4xx_HAL_Driver/Src/stm32l4xx_hal_dac.c ****   @verbatim
  25:stm/stm32l4xx/STM32L4xx_HAL_Driver/Src/stm32l4xx_hal_dac.c ****   ==============================================================================
  26:stm/stm32l4xx/STM32L4xx_HAL_Driver/Src/stm32l4xx_hal_dac.c ****                       ##### DAC Peripheral features #####
  27:stm/stm32l4xx/STM32L4xx_HAL_Driver/Src/stm32l4xx_hal_dac.c ****   ==============================================================================
  28:stm/stm32l4xx/STM32L4xx_HAL_Driver/Src/stm32l4xx_hal_dac.c ****     [..]
  29:stm/stm32l4xx/STM32L4xx_HAL_Driver/Src/stm32l4xx_hal_dac.c ****       *** DAC Channels ***
ARM GAS  /tmp/cc1emfwg.s 			page 2


  30:stm/stm32l4xx/STM32L4xx_HAL_Driver/Src/stm32l4xx_hal_dac.c ****       ====================
  31:stm/stm32l4xx/STM32L4xx_HAL_Driver/Src/stm32l4xx_hal_dac.c ****     [..]
  32:stm/stm32l4xx/STM32L4xx_HAL_Driver/Src/stm32l4xx_hal_dac.c ****     STM32L4 devices integrate one or two 12-bit Digital Analog Converters
  33:stm/stm32l4xx/STM32L4xx_HAL_Driver/Src/stm32l4xx_hal_dac.c ****     (i.e. one or 2 channel(s))
  34:stm/stm32l4xx/STM32L4xx_HAL_Driver/Src/stm32l4xx_hal_dac.c ****     1 channel : STM32L451xx STM32L452xx STM32L462xx
  35:stm/stm32l4xx/STM32L4xx_HAL_Driver/Src/stm32l4xx_hal_dac.c ****     2 channels: STM32L431xx STM32L432xx STM32L433xx STM32L442xx STM32L443xx
  36:stm/stm32l4xx/STM32L4xx_HAL_Driver/Src/stm32l4xx_hal_dac.c ****                 STM32L471xx STM32L475xx STM32L476xx STM32L485xx STM32L486xx STM32L496xx STM32L4A6xx
  37:stm/stm32l4xx/STM32L4xx_HAL_Driver/Src/stm32l4xx_hal_dac.c ****                 STM32L4P5xx STM32L4Q5xx
  38:stm/stm32l4xx/STM32L4xx_HAL_Driver/Src/stm32l4xx_hal_dac.c ****                 STM32L4R5xx STM32L4R7xx STM32L4R9xx STM32L4S5xx STM32L4S7xx STM32L4S9xx
  39:stm/stm32l4xx/STM32L4xx_HAL_Driver/Src/stm32l4xx_hal_dac.c **** 
  40:stm/stm32l4xx/STM32L4xx_HAL_Driver/Src/stm32l4xx_hal_dac.c ****     When 2 channels are available, the 2 converters (i.e. channel1 & channel2)
  41:stm/stm32l4xx/STM32L4xx_HAL_Driver/Src/stm32l4xx_hal_dac.c ****     can be used independently or simultaneously (dual mode):
  42:stm/stm32l4xx/STM32L4xx_HAL_Driver/Src/stm32l4xx_hal_dac.c ****       (#) DAC channel1 with DAC_OUT1 (PA4) as output or connected to on-chip
  43:stm/stm32l4xx/STM32L4xx_HAL_Driver/Src/stm32l4xx_hal_dac.c ****           peripherals.
  44:stm/stm32l4xx/STM32L4xx_HAL_Driver/Src/stm32l4xx_hal_dac.c ****       (#) Whenever present, DAC channel2 with DAC_OUT2 (PA5) as output
  45:stm/stm32l4xx/STM32L4xx_HAL_Driver/Src/stm32l4xx_hal_dac.c ****           or connected to on-chip peripherals.
  46:stm/stm32l4xx/STM32L4xx_HAL_Driver/Src/stm32l4xx_hal_dac.c **** 
  47:stm/stm32l4xx/STM32L4xx_HAL_Driver/Src/stm32l4xx_hal_dac.c ****       *** DAC Triggers ***
  48:stm/stm32l4xx/STM32L4xx_HAL_Driver/Src/stm32l4xx_hal_dac.c ****       ====================
  49:stm/stm32l4xx/STM32L4xx_HAL_Driver/Src/stm32l4xx_hal_dac.c ****     [..]
  50:stm/stm32l4xx/STM32L4xx_HAL_Driver/Src/stm32l4xx_hal_dac.c ****     Digital to Analog conversion can be non-triggered using DAC_TRIGGER_NONE
  51:stm/stm32l4xx/STM32L4xx_HAL_Driver/Src/stm32l4xx_hal_dac.c ****     and DAC_OUT1/DAC_OUT2 is available once writing to DHRx register.
  52:stm/stm32l4xx/STM32L4xx_HAL_Driver/Src/stm32l4xx_hal_dac.c ****     [..]
  53:stm/stm32l4xx/STM32L4xx_HAL_Driver/Src/stm32l4xx_hal_dac.c ****     Digital to Analog conversion can be triggered by:
  54:stm/stm32l4xx/STM32L4xx_HAL_Driver/Src/stm32l4xx_hal_dac.c ****       (#) External event: EXTI Line 9 (any GPIOx_PIN_9) using DAC_TRIGGER_EXT_IT9.
  55:stm/stm32l4xx/STM32L4xx_HAL_Driver/Src/stm32l4xx_hal_dac.c ****           The used pin (GPIOx_PIN_9) must be configured in input mode.
  56:stm/stm32l4xx/STM32L4xx_HAL_Driver/Src/stm32l4xx_hal_dac.c **** 
  57:stm/stm32l4xx/STM32L4xx_HAL_Driver/Src/stm32l4xx_hal_dac.c ****       (#) Timers TRGO: TIM2, TIM3, TIM4, TIM5, TIM6 and TIM7
  58:stm/stm32l4xx/STM32L4xx_HAL_Driver/Src/stm32l4xx_hal_dac.c ****           (DAC_TRIGGER_T2_TRGO, DAC_TRIGGER_T3_TRGO...)
  59:stm/stm32l4xx/STM32L4xx_HAL_Driver/Src/stm32l4xx_hal_dac.c **** 
  60:stm/stm32l4xx/STM32L4xx_HAL_Driver/Src/stm32l4xx_hal_dac.c ****       (#) Software using DAC_TRIGGER_SOFTWARE
  61:stm/stm32l4xx/STM32L4xx_HAL_Driver/Src/stm32l4xx_hal_dac.c **** 
  62:stm/stm32l4xx/STM32L4xx_HAL_Driver/Src/stm32l4xx_hal_dac.c ****       *** DAC Buffer mode feature ***
  63:stm/stm32l4xx/STM32L4xx_HAL_Driver/Src/stm32l4xx_hal_dac.c ****       ===============================
  64:stm/stm32l4xx/STM32L4xx_HAL_Driver/Src/stm32l4xx_hal_dac.c ****       [..]
  65:stm/stm32l4xx/STM32L4xx_HAL_Driver/Src/stm32l4xx_hal_dac.c ****       Each DAC channel integrates an output buffer that can be used to
  66:stm/stm32l4xx/STM32L4xx_HAL_Driver/Src/stm32l4xx_hal_dac.c ****       reduce the output impedance, and to drive external loads directly
  67:stm/stm32l4xx/STM32L4xx_HAL_Driver/Src/stm32l4xx_hal_dac.c ****       without having to add an external operational amplifier.
  68:stm/stm32l4xx/STM32L4xx_HAL_Driver/Src/stm32l4xx_hal_dac.c ****       To enable, the output buffer use
  69:stm/stm32l4xx/STM32L4xx_HAL_Driver/Src/stm32l4xx_hal_dac.c ****       sConfig.DAC_OutputBuffer = DAC_OUTPUTBUFFER_ENABLE;
  70:stm/stm32l4xx/STM32L4xx_HAL_Driver/Src/stm32l4xx_hal_dac.c ****       [..]
  71:stm/stm32l4xx/STM32L4xx_HAL_Driver/Src/stm32l4xx_hal_dac.c ****       (@) Refer to the device datasheet for more details about output
  72:stm/stm32l4xx/STM32L4xx_HAL_Driver/Src/stm32l4xx_hal_dac.c ****           impedance value with and without output buffer.
  73:stm/stm32l4xx/STM32L4xx_HAL_Driver/Src/stm32l4xx_hal_dac.c **** 
  74:stm/stm32l4xx/STM32L4xx_HAL_Driver/Src/stm32l4xx_hal_dac.c ****       *** DAC connect feature ***
  75:stm/stm32l4xx/STM32L4xx_HAL_Driver/Src/stm32l4xx_hal_dac.c ****       ===============================
  76:stm/stm32l4xx/STM32L4xx_HAL_Driver/Src/stm32l4xx_hal_dac.c ****       [..]
  77:stm/stm32l4xx/STM32L4xx_HAL_Driver/Src/stm32l4xx_hal_dac.c ****       Each DAC channel can be connected internally.
  78:stm/stm32l4xx/STM32L4xx_HAL_Driver/Src/stm32l4xx_hal_dac.c ****       To connect, use
  79:stm/stm32l4xx/STM32L4xx_HAL_Driver/Src/stm32l4xx_hal_dac.c ****       sConfig.DAC_ConnectOnChipPeripheral = DAC_CHIPCONNECT_ENABLE;
  80:stm/stm32l4xx/STM32L4xx_HAL_Driver/Src/stm32l4xx_hal_dac.c **** 
  81:stm/stm32l4xx/STM32L4xx_HAL_Driver/Src/stm32l4xx_hal_dac.c ****       *** GPIO configurations guidelines ***
  82:stm/stm32l4xx/STM32L4xx_HAL_Driver/Src/stm32l4xx_hal_dac.c ****       =====================
  83:stm/stm32l4xx/STM32L4xx_HAL_Driver/Src/stm32l4xx_hal_dac.c ****       [..]
  84:stm/stm32l4xx/STM32L4xx_HAL_Driver/Src/stm32l4xx_hal_dac.c ****       When a DAC channel is used (ex channel1 on PA4) and the other is not
  85:stm/stm32l4xx/STM32L4xx_HAL_Driver/Src/stm32l4xx_hal_dac.c ****       (ex channel2 on PA5 is configured in Analog and disabled).
  86:stm/stm32l4xx/STM32L4xx_HAL_Driver/Src/stm32l4xx_hal_dac.c ****       Channel1 may disturb channel2 as coupling effect.
ARM GAS  /tmp/cc1emfwg.s 			page 3


  87:stm/stm32l4xx/STM32L4xx_HAL_Driver/Src/stm32l4xx_hal_dac.c ****       Note that there is no coupling on channel2 as soon as channel2 is turned on.
  88:stm/stm32l4xx/STM32L4xx_HAL_Driver/Src/stm32l4xx_hal_dac.c ****       Coupling on adjacent channel could be avoided as follows:
  89:stm/stm32l4xx/STM32L4xx_HAL_Driver/Src/stm32l4xx_hal_dac.c ****       when unused PA5 is configured as INPUT PULL-UP or DOWN.
  90:stm/stm32l4xx/STM32L4xx_HAL_Driver/Src/stm32l4xx_hal_dac.c ****       PA5 is configured in ANALOG just before it is turned on.
  91:stm/stm32l4xx/STM32L4xx_HAL_Driver/Src/stm32l4xx_hal_dac.c **** 
  92:stm/stm32l4xx/STM32L4xx_HAL_Driver/Src/stm32l4xx_hal_dac.c ****       *** DAC Sample and Hold feature ***
  93:stm/stm32l4xx/STM32L4xx_HAL_Driver/Src/stm32l4xx_hal_dac.c ****       ========================
  94:stm/stm32l4xx/STM32L4xx_HAL_Driver/Src/stm32l4xx_hal_dac.c ****       [..]
  95:stm/stm32l4xx/STM32L4xx_HAL_Driver/Src/stm32l4xx_hal_dac.c ****       For each converter, 2 modes are supported: normal mode and
  96:stm/stm32l4xx/STM32L4xx_HAL_Driver/Src/stm32l4xx_hal_dac.c ****       "sample and hold" mode (i.e. low power mode).
  97:stm/stm32l4xx/STM32L4xx_HAL_Driver/Src/stm32l4xx_hal_dac.c ****       In the sample and hold mode, the DAC core converts data, then holds the
  98:stm/stm32l4xx/STM32L4xx_HAL_Driver/Src/stm32l4xx_hal_dac.c ****       converted voltage on a capacitor. When not converting, the DAC cores and
  99:stm/stm32l4xx/STM32L4xx_HAL_Driver/Src/stm32l4xx_hal_dac.c ****       buffer are completely turned off between samples and the DAC output is
 100:stm/stm32l4xx/STM32L4xx_HAL_Driver/Src/stm32l4xx_hal_dac.c ****       tri-stated, therefore  reducing the overall power consumption. A new
 101:stm/stm32l4xx/STM32L4xx_HAL_Driver/Src/stm32l4xx_hal_dac.c ****       stabilization period is needed before each new conversion.
 102:stm/stm32l4xx/STM32L4xx_HAL_Driver/Src/stm32l4xx_hal_dac.c **** 
 103:stm/stm32l4xx/STM32L4xx_HAL_Driver/Src/stm32l4xx_hal_dac.c ****       The sample and hold allow setting internal or external voltage @
 104:stm/stm32l4xx/STM32L4xx_HAL_Driver/Src/stm32l4xx_hal_dac.c ****       low power consumption cost (output value can be at any given rate either
 105:stm/stm32l4xx/STM32L4xx_HAL_Driver/Src/stm32l4xx_hal_dac.c ****       by CPU or DMA).
 106:stm/stm32l4xx/STM32L4xx_HAL_Driver/Src/stm32l4xx_hal_dac.c **** 
 107:stm/stm32l4xx/STM32L4xx_HAL_Driver/Src/stm32l4xx_hal_dac.c ****       The Sample and hold block and registers uses either LSI & run in
 108:stm/stm32l4xx/STM32L4xx_HAL_Driver/Src/stm32l4xx_hal_dac.c ****       several power modes: run mode, sleep mode, low power run, low power sleep
 109:stm/stm32l4xx/STM32L4xx_HAL_Driver/Src/stm32l4xx_hal_dac.c ****       mode & stop1 mode.
 110:stm/stm32l4xx/STM32L4xx_HAL_Driver/Src/stm32l4xx_hal_dac.c **** 
 111:stm/stm32l4xx/STM32L4xx_HAL_Driver/Src/stm32l4xx_hal_dac.c ****       Low power stop1 mode allows only static conversion.
 112:stm/stm32l4xx/STM32L4xx_HAL_Driver/Src/stm32l4xx_hal_dac.c **** 
 113:stm/stm32l4xx/STM32L4xx_HAL_Driver/Src/stm32l4xx_hal_dac.c ****       To enable Sample and Hold mode
 114:stm/stm32l4xx/STM32L4xx_HAL_Driver/Src/stm32l4xx_hal_dac.c ****       Enable LSI using HAL_RCC_OscConfig with RCC_OSCILLATORTYPE_LSI &
 115:stm/stm32l4xx/STM32L4xx_HAL_Driver/Src/stm32l4xx_hal_dac.c ****       RCC_LSI_ON parameters.
 116:stm/stm32l4xx/STM32L4xx_HAL_Driver/Src/stm32l4xx_hal_dac.c **** 
 117:stm/stm32l4xx/STM32L4xx_HAL_Driver/Src/stm32l4xx_hal_dac.c ****       Use DAC_InitStructure.DAC_SampleAndHold = DAC_SAMPLEANDHOLD_ENABLE;
 118:stm/stm32l4xx/STM32L4xx_HAL_Driver/Src/stm32l4xx_hal_dac.c ****          & DAC_ChannelConfTypeDef.DAC_SampleAndHoldConfig.DAC_SampleTime,
 119:stm/stm32l4xx/STM32L4xx_HAL_Driver/Src/stm32l4xx_hal_dac.c ****            DAC_HoldTime & DAC_RefreshTime;
 120:stm/stm32l4xx/STM32L4xx_HAL_Driver/Src/stm32l4xx_hal_dac.c **** 
 121:stm/stm32l4xx/STM32L4xx_HAL_Driver/Src/stm32l4xx_hal_dac.c ****        *** DAC calibration feature ***
 122:stm/stm32l4xx/STM32L4xx_HAL_Driver/Src/stm32l4xx_hal_dac.c ****        ===================================
 123:stm/stm32l4xx/STM32L4xx_HAL_Driver/Src/stm32l4xx_hal_dac.c ****       [..]
 124:stm/stm32l4xx/STM32L4xx_HAL_Driver/Src/stm32l4xx_hal_dac.c ****        (#)  The 2 converters (channel1 & channel2) provide calibration capabilities.
 125:stm/stm32l4xx/STM32L4xx_HAL_Driver/Src/stm32l4xx_hal_dac.c ****        (++) Calibration aims at correcting some offset of output buffer.
 126:stm/stm32l4xx/STM32L4xx_HAL_Driver/Src/stm32l4xx_hal_dac.c ****        (++) The DAC uses either factory calibration settings OR user defined
 127:stm/stm32l4xx/STM32L4xx_HAL_Driver/Src/stm32l4xx_hal_dac.c ****            calibration (trimming) settings (i.e. trimming mode).
 128:stm/stm32l4xx/STM32L4xx_HAL_Driver/Src/stm32l4xx_hal_dac.c ****        (++) The user defined settings can be figured out using self calibration
 129:stm/stm32l4xx/STM32L4xx_HAL_Driver/Src/stm32l4xx_hal_dac.c ****            handled by HAL_DACEx_SelfCalibrate.
 130:stm/stm32l4xx/STM32L4xx_HAL_Driver/Src/stm32l4xx_hal_dac.c ****        (++) HAL_DACEx_SelfCalibrate:
 131:stm/stm32l4xx/STM32L4xx_HAL_Driver/Src/stm32l4xx_hal_dac.c ****        (+++) Runs automatically the calibration.
 132:stm/stm32l4xx/STM32L4xx_HAL_Driver/Src/stm32l4xx_hal_dac.c ****        (+++) Enables the user trimming mode
 133:stm/stm32l4xx/STM32L4xx_HAL_Driver/Src/stm32l4xx_hal_dac.c ****        (+++) Updates a structure with trimming values with fresh calibration
 134:stm/stm32l4xx/STM32L4xx_HAL_Driver/Src/stm32l4xx_hal_dac.c ****             results.
 135:stm/stm32l4xx/STM32L4xx_HAL_Driver/Src/stm32l4xx_hal_dac.c ****             The user may store the calibration results for larger
 136:stm/stm32l4xx/STM32L4xx_HAL_Driver/Src/stm32l4xx_hal_dac.c ****             (ex monitoring the trimming as a function of temperature
 137:stm/stm32l4xx/STM32L4xx_HAL_Driver/Src/stm32l4xx_hal_dac.c ****             for instance)
 138:stm/stm32l4xx/STM32L4xx_HAL_Driver/Src/stm32l4xx_hal_dac.c **** 
 139:stm/stm32l4xx/STM32L4xx_HAL_Driver/Src/stm32l4xx_hal_dac.c ****        *** DAC wave generation feature ***
 140:stm/stm32l4xx/STM32L4xx_HAL_Driver/Src/stm32l4xx_hal_dac.c ****        ===================================
 141:stm/stm32l4xx/STM32L4xx_HAL_Driver/Src/stm32l4xx_hal_dac.c ****        [..]
 142:stm/stm32l4xx/STM32L4xx_HAL_Driver/Src/stm32l4xx_hal_dac.c ****        Both DAC channels can be used to generate
 143:stm/stm32l4xx/STM32L4xx_HAL_Driver/Src/stm32l4xx_hal_dac.c ****          (#) Noise wave
ARM GAS  /tmp/cc1emfwg.s 			page 4


 144:stm/stm32l4xx/STM32L4xx_HAL_Driver/Src/stm32l4xx_hal_dac.c ****          (#) Triangle wave
 145:stm/stm32l4xx/STM32L4xx_HAL_Driver/Src/stm32l4xx_hal_dac.c **** 
 146:stm/stm32l4xx/STM32L4xx_HAL_Driver/Src/stm32l4xx_hal_dac.c ****        *** DAC data format ***
 147:stm/stm32l4xx/STM32L4xx_HAL_Driver/Src/stm32l4xx_hal_dac.c ****        =======================
 148:stm/stm32l4xx/STM32L4xx_HAL_Driver/Src/stm32l4xx_hal_dac.c ****        [..]
 149:stm/stm32l4xx/STM32L4xx_HAL_Driver/Src/stm32l4xx_hal_dac.c ****        The DAC data format can be:
 150:stm/stm32l4xx/STM32L4xx_HAL_Driver/Src/stm32l4xx_hal_dac.c ****          (#) 8-bit right alignment using DAC_ALIGN_8B_R
 151:stm/stm32l4xx/STM32L4xx_HAL_Driver/Src/stm32l4xx_hal_dac.c ****          (#) 12-bit left alignment using DAC_ALIGN_12B_L
 152:stm/stm32l4xx/STM32L4xx_HAL_Driver/Src/stm32l4xx_hal_dac.c ****          (#) 12-bit right alignment using DAC_ALIGN_12B_R
 153:stm/stm32l4xx/STM32L4xx_HAL_Driver/Src/stm32l4xx_hal_dac.c **** 
 154:stm/stm32l4xx/STM32L4xx_HAL_Driver/Src/stm32l4xx_hal_dac.c ****        *** DAC data value to voltage correspondence ***
 155:stm/stm32l4xx/STM32L4xx_HAL_Driver/Src/stm32l4xx_hal_dac.c ****        ================================================
 156:stm/stm32l4xx/STM32L4xx_HAL_Driver/Src/stm32l4xx_hal_dac.c ****        [..]
 157:stm/stm32l4xx/STM32L4xx_HAL_Driver/Src/stm32l4xx_hal_dac.c ****        The analog output voltage on each DAC channel pin is determined
 158:stm/stm32l4xx/STM32L4xx_HAL_Driver/Src/stm32l4xx_hal_dac.c ****        by the following equation:
 159:stm/stm32l4xx/STM32L4xx_HAL_Driver/Src/stm32l4xx_hal_dac.c ****        [..]
 160:stm/stm32l4xx/STM32L4xx_HAL_Driver/Src/stm32l4xx_hal_dac.c ****        DAC_OUTx = VREF+ * DOR / 4095
 161:stm/stm32l4xx/STM32L4xx_HAL_Driver/Src/stm32l4xx_hal_dac.c ****        (+) with  DOR is the Data Output Register
 162:stm/stm32l4xx/STM32L4xx_HAL_Driver/Src/stm32l4xx_hal_dac.c ****        [..]
 163:stm/stm32l4xx/STM32L4xx_HAL_Driver/Src/stm32l4xx_hal_dac.c ****           VEF+ is the input voltage reference (refer to the device datasheet)
 164:stm/stm32l4xx/STM32L4xx_HAL_Driver/Src/stm32l4xx_hal_dac.c ****        [..]
 165:stm/stm32l4xx/STM32L4xx_HAL_Driver/Src/stm32l4xx_hal_dac.c ****         e.g. To set DAC_OUT1 to 0.7V, use
 166:stm/stm32l4xx/STM32L4xx_HAL_Driver/Src/stm32l4xx_hal_dac.c ****        (+) Assuming that VREF+ = 3.3V, DAC_OUT1 = (3.3 * 868) / 4095 = 0.7V
 167:stm/stm32l4xx/STM32L4xx_HAL_Driver/Src/stm32l4xx_hal_dac.c **** 
 168:stm/stm32l4xx/STM32L4xx_HAL_Driver/Src/stm32l4xx_hal_dac.c ****        *** DMA requests ***
 169:stm/stm32l4xx/STM32L4xx_HAL_Driver/Src/stm32l4xx_hal_dac.c ****        =====================
 170:stm/stm32l4xx/STM32L4xx_HAL_Driver/Src/stm32l4xx_hal_dac.c ****        [..]
 171:stm/stm32l4xx/STM32L4xx_HAL_Driver/Src/stm32l4xx_hal_dac.c ****        A DMA1 request can be generated when an external trigger (but not a software trigger)
 172:stm/stm32l4xx/STM32L4xx_HAL_Driver/Src/stm32l4xx_hal_dac.c ****        occurs if DMA1 requests are enabled using HAL_DAC_Start_DMA().
 173:stm/stm32l4xx/STM32L4xx_HAL_Driver/Src/stm32l4xx_hal_dac.c ****        DMA requests are mapped as following:
 174:stm/stm32l4xx/STM32L4xx_HAL_Driver/Src/stm32l4xx_hal_dac.c ****        (#) When DMAMUX is NOT present:
 175:stm/stm32l4xx/STM32L4xx_HAL_Driver/Src/stm32l4xx_hal_dac.c ****            DMA1 requests are mapped as following:
 176:stm/stm32l4xx/STM32L4xx_HAL_Driver/Src/stm32l4xx_hal_dac.c ****              (+) DAC channel1 mapped on DMA1 request 6 / channel3
 177:stm/stm32l4xx/STM32L4xx_HAL_Driver/Src/stm32l4xx_hal_dac.c ****              (+) DAC channel2 mapped on DMA1 request 5 / channel4
 178:stm/stm32l4xx/STM32L4xx_HAL_Driver/Src/stm32l4xx_hal_dac.c ****            DMA2 requests are mapped as following:
 179:stm/stm32l4xx/STM32L4xx_HAL_Driver/Src/stm32l4xx_hal_dac.c ****              (+) DAC channel1 mapped on DMA2 request 3 / channel4
 180:stm/stm32l4xx/STM32L4xx_HAL_Driver/Src/stm32l4xx_hal_dac.c ****              (+) DAC channel2 mapped on DMA2 request 3 / channel5
 181:stm/stm32l4xx/STM32L4xx_HAL_Driver/Src/stm32l4xx_hal_dac.c ****        (#) When DMAMUX is present:
 182:stm/stm32l4xx/STM32L4xx_HAL_Driver/Src/stm32l4xx_hal_dac.c ****              (+) DAC channel1 mapped on DMA1/DMA2 request 6 (can be any DMA channel)
 183:stm/stm32l4xx/STM32L4xx_HAL_Driver/Src/stm32l4xx_hal_dac.c ****              (+) DAC channel2 mapped on DMA1/DMA2 request 7 (can be any DMA channel)
 184:stm/stm32l4xx/STM32L4xx_HAL_Driver/Src/stm32l4xx_hal_dac.c **** 
 185:stm/stm32l4xx/STM32L4xx_HAL_Driver/Src/stm32l4xx_hal_dac.c ****        *** High frequency interface mode ***
 186:stm/stm32l4xx/STM32L4xx_HAL_Driver/Src/stm32l4xx_hal_dac.c ****        =====================================
 187:stm/stm32l4xx/STM32L4xx_HAL_Driver/Src/stm32l4xx_hal_dac.c ****        [..]
 188:stm/stm32l4xx/STM32L4xx_HAL_Driver/Src/stm32l4xx_hal_dac.c ****        The high frequency interface informs DAC instance about the bus frequency in use.
 189:stm/stm32l4xx/STM32L4xx_HAL_Driver/Src/stm32l4xx_hal_dac.c ****        It is mandatory information for DAC (as internal timing of DAC is bus frequency dependent)
 190:stm/stm32l4xx/STM32L4xx_HAL_Driver/Src/stm32l4xx_hal_dac.c ****        provided thanks to parameter DAC_HighFrequency handled in HAL_DAC_ConfigChannel () function.
 191:stm/stm32l4xx/STM32L4xx_HAL_Driver/Src/stm32l4xx_hal_dac.c ****        Use of DAC_HIGH_FREQUENCY_INTERFACE_MODE_AUTOMATIC value of DAC_HighFrequency is recommended
 192:stm/stm32l4xx/STM32L4xx_HAL_Driver/Src/stm32l4xx_hal_dac.c ****        function figured out the correct setting.
 193:stm/stm32l4xx/STM32L4xx_HAL_Driver/Src/stm32l4xx_hal_dac.c ****        The high frequency mode is same for all converters of a same DAC instance. Either same
 194:stm/stm32l4xx/STM32L4xx_HAL_Driver/Src/stm32l4xx_hal_dac.c ****        parameter DAC_HighFrequency is used for all DAC converters or again self
 195:stm/stm32l4xx/STM32L4xx_HAL_Driver/Src/stm32l4xx_hal_dac.c ****        DAC_HIGH_FREQUENCY_INTERFACE_MODE_AUTOMATIC detection parameter.
 196:stm/stm32l4xx/STM32L4xx_HAL_Driver/Src/stm32l4xx_hal_dac.c **** 
 197:stm/stm32l4xx/STM32L4xx_HAL_Driver/Src/stm32l4xx_hal_dac.c ****      [..]
 198:stm/stm32l4xx/STM32L4xx_HAL_Driver/Src/stm32l4xx_hal_dac.c ****     (@) For Dual mode and specific signal (Triangle and noise) generation please
 199:stm/stm32l4xx/STM32L4xx_HAL_Driver/Src/stm32l4xx_hal_dac.c ****         refer to Extended Features Driver description
 200:stm/stm32l4xx/STM32L4xx_HAL_Driver/Src/stm32l4xx_hal_dac.c **** 
ARM GAS  /tmp/cc1emfwg.s 			page 5


 201:stm/stm32l4xx/STM32L4xx_HAL_Driver/Src/stm32l4xx_hal_dac.c ****                       ##### How to use this driver #####
 202:stm/stm32l4xx/STM32L4xx_HAL_Driver/Src/stm32l4xx_hal_dac.c ****   ==============================================================================
 203:stm/stm32l4xx/STM32L4xx_HAL_Driver/Src/stm32l4xx_hal_dac.c ****     [..]
 204:stm/stm32l4xx/STM32L4xx_HAL_Driver/Src/stm32l4xx_hal_dac.c ****       (+) DAC APB clock must be enabled to get write access to DAC
 205:stm/stm32l4xx/STM32L4xx_HAL_Driver/Src/stm32l4xx_hal_dac.c ****           registers using HAL_DAC_Init()
 206:stm/stm32l4xx/STM32L4xx_HAL_Driver/Src/stm32l4xx_hal_dac.c ****       (+) Configure DAC_OUTx (DAC_OUT1: PA4, DAC_OUT2: PA5) in analog mode.
 207:stm/stm32l4xx/STM32L4xx_HAL_Driver/Src/stm32l4xx_hal_dac.c ****       (+) Configure the DAC channel using HAL_DAC_ConfigChannel() function.
 208:stm/stm32l4xx/STM32L4xx_HAL_Driver/Src/stm32l4xx_hal_dac.c ****       (+) Enable the DAC channel using HAL_DAC_Start() or HAL_DAC_Start_DMA() functions.
 209:stm/stm32l4xx/STM32L4xx_HAL_Driver/Src/stm32l4xx_hal_dac.c **** 
 210:stm/stm32l4xx/STM32L4xx_HAL_Driver/Src/stm32l4xx_hal_dac.c ****      *** Calibration mode IO operation ***
 211:stm/stm32l4xx/STM32L4xx_HAL_Driver/Src/stm32l4xx_hal_dac.c ****      ======================================
 212:stm/stm32l4xx/STM32L4xx_HAL_Driver/Src/stm32l4xx_hal_dac.c ****      [..]
 213:stm/stm32l4xx/STM32L4xx_HAL_Driver/Src/stm32l4xx_hal_dac.c ****        (+) Retrieve the factory trimming (calibration settings) using HAL_DACEx_GetTrimOffset()
 214:stm/stm32l4xx/STM32L4xx_HAL_Driver/Src/stm32l4xx_hal_dac.c ****        (+) Run the calibration using HAL_DACEx_SelfCalibrate()
 215:stm/stm32l4xx/STM32L4xx_HAL_Driver/Src/stm32l4xx_hal_dac.c ****        (+) Update the trimming while DAC running using HAL_DACEx_SetUserTrimming()
 216:stm/stm32l4xx/STM32L4xx_HAL_Driver/Src/stm32l4xx_hal_dac.c **** 
 217:stm/stm32l4xx/STM32L4xx_HAL_Driver/Src/stm32l4xx_hal_dac.c ****      *** Polling mode IO operation ***
 218:stm/stm32l4xx/STM32L4xx_HAL_Driver/Src/stm32l4xx_hal_dac.c ****      =================================
 219:stm/stm32l4xx/STM32L4xx_HAL_Driver/Src/stm32l4xx_hal_dac.c ****      [..]
 220:stm/stm32l4xx/STM32L4xx_HAL_Driver/Src/stm32l4xx_hal_dac.c ****        (+) Start the DAC peripheral using HAL_DAC_Start()
 221:stm/stm32l4xx/STM32L4xx_HAL_Driver/Src/stm32l4xx_hal_dac.c ****        (+) To read the DAC last data output value, use the HAL_DAC_GetValue() function.
 222:stm/stm32l4xx/STM32L4xx_HAL_Driver/Src/stm32l4xx_hal_dac.c ****        (+) Stop the DAC peripheral using HAL_DAC_Stop()
 223:stm/stm32l4xx/STM32L4xx_HAL_Driver/Src/stm32l4xx_hal_dac.c **** 
 224:stm/stm32l4xx/STM32L4xx_HAL_Driver/Src/stm32l4xx_hal_dac.c ****      *** DMA mode IO operation ***
 225:stm/stm32l4xx/STM32L4xx_HAL_Driver/Src/stm32l4xx_hal_dac.c ****      ==============================
 226:stm/stm32l4xx/STM32L4xx_HAL_Driver/Src/stm32l4xx_hal_dac.c ****      [..]
 227:stm/stm32l4xx/STM32L4xx_HAL_Driver/Src/stm32l4xx_hal_dac.c ****        (+) Start the DAC peripheral using HAL_DAC_Start_DMA(), at this stage the user specify the l
 228:stm/stm32l4xx/STM32L4xx_HAL_Driver/Src/stm32l4xx_hal_dac.c ****            of data to be transferred at each end of conversion
 229:stm/stm32l4xx/STM32L4xx_HAL_Driver/Src/stm32l4xx_hal_dac.c ****            First issued trigger will start the conversion of the value previously set by HAL_DAC_Se
 230:stm/stm32l4xx/STM32L4xx_HAL_Driver/Src/stm32l4xx_hal_dac.c ****        (+) At the middle of data transfer HAL_DAC_ConvHalfCpltCallbackCh1() or HAL_DACEx_ConvHalfCp
 231:stm/stm32l4xx/STM32L4xx_HAL_Driver/Src/stm32l4xx_hal_dac.c ****            function is executed and user can add his own code by customization of function pointer
 232:stm/stm32l4xx/STM32L4xx_HAL_Driver/Src/stm32l4xx_hal_dac.c ****            HAL_DAC_ConvHalfCpltCallbackCh1() or HAL_DACEx_ConvHalfCpltCallbackCh2()
 233:stm/stm32l4xx/STM32L4xx_HAL_Driver/Src/stm32l4xx_hal_dac.c ****        (+) At The end of data transfer HAL_DAC_ConvCpltCallbackCh1() or HAL_DACEx_ConvHalfCpltCallb
 234:stm/stm32l4xx/STM32L4xx_HAL_Driver/Src/stm32l4xx_hal_dac.c ****            function is executed and user can add his own code by customization of function pointer
 235:stm/stm32l4xx/STM32L4xx_HAL_Driver/Src/stm32l4xx_hal_dac.c ****            HAL_DAC_ConvCpltCallbackCh1() or HAL_DACEx_ConvHalfCpltCallbackCh2()
 236:stm/stm32l4xx/STM32L4xx_HAL_Driver/Src/stm32l4xx_hal_dac.c ****        (+) In case of transfer Error, HAL_DAC_ErrorCallbackCh1() function is executed and user can
 237:stm/stm32l4xx/STM32L4xx_HAL_Driver/Src/stm32l4xx_hal_dac.c ****             add his own code by customization of function pointer HAL_DAC_ErrorCallbackCh1
 238:stm/stm32l4xx/STM32L4xx_HAL_Driver/Src/stm32l4xx_hal_dac.c ****        (+) In case of DMA underrun, DAC interruption triggers and execute internal function HAL_DAC
 239:stm/stm32l4xx/STM32L4xx_HAL_Driver/Src/stm32l4xx_hal_dac.c ****            HAL_DAC_DMAUnderrunCallbackCh1() or HAL_DACEx_DMAUnderrunCallbackCh2()
 240:stm/stm32l4xx/STM32L4xx_HAL_Driver/Src/stm32l4xx_hal_dac.c ****            function is executed and user can add his own code by customization of function pointer
 241:stm/stm32l4xx/STM32L4xx_HAL_Driver/Src/stm32l4xx_hal_dac.c ****            HAL_DAC_DMAUnderrunCallbackCh1() or HAL_DACEx_DMAUnderrunCallbackCh2() and
 242:stm/stm32l4xx/STM32L4xx_HAL_Driver/Src/stm32l4xx_hal_dac.c ****            add his own code by customization of function pointer HAL_DAC_ErrorCallbackCh1()
 243:stm/stm32l4xx/STM32L4xx_HAL_Driver/Src/stm32l4xx_hal_dac.c ****        (+) Stop the DAC peripheral using HAL_DAC_Stop_DMA()
 244:stm/stm32l4xx/STM32L4xx_HAL_Driver/Src/stm32l4xx_hal_dac.c **** 
 245:stm/stm32l4xx/STM32L4xx_HAL_Driver/Src/stm32l4xx_hal_dac.c ****     *** Callback registration ***
 246:stm/stm32l4xx/STM32L4xx_HAL_Driver/Src/stm32l4xx_hal_dac.c ****     =============================================
 247:stm/stm32l4xx/STM32L4xx_HAL_Driver/Src/stm32l4xx_hal_dac.c ****     [..]
 248:stm/stm32l4xx/STM32L4xx_HAL_Driver/Src/stm32l4xx_hal_dac.c ****       The compilation define  USE_HAL_DAC_REGISTER_CALLBACKS when set to 1
 249:stm/stm32l4xx/STM32L4xx_HAL_Driver/Src/stm32l4xx_hal_dac.c ****       allows the user to configure dynamically the driver callbacks.
 250:stm/stm32l4xx/STM32L4xx_HAL_Driver/Src/stm32l4xx_hal_dac.c **** 
 251:stm/stm32l4xx/STM32L4xx_HAL_Driver/Src/stm32l4xx_hal_dac.c ****     Use Functions HAL_DAC_RegisterCallback() to register a user callback,
 252:stm/stm32l4xx/STM32L4xx_HAL_Driver/Src/stm32l4xx_hal_dac.c ****       it allows to register following callbacks:
 253:stm/stm32l4xx/STM32L4xx_HAL_Driver/Src/stm32l4xx_hal_dac.c ****       (+) ConvCpltCallbackCh1     : callback when a half transfer is completed on Ch1.
 254:stm/stm32l4xx/STM32L4xx_HAL_Driver/Src/stm32l4xx_hal_dac.c ****       (+) ConvHalfCpltCallbackCh1 : callback when a transfer is completed on Ch1.
 255:stm/stm32l4xx/STM32L4xx_HAL_Driver/Src/stm32l4xx_hal_dac.c ****       (+) ErrorCallbackCh1        : callback when an error occurs on Ch1.
 256:stm/stm32l4xx/STM32L4xx_HAL_Driver/Src/stm32l4xx_hal_dac.c ****       (+) DMAUnderrunCallbackCh1  : callback when an underrun error occurs on Ch1.
 257:stm/stm32l4xx/STM32L4xx_HAL_Driver/Src/stm32l4xx_hal_dac.c ****       (+) ConvCpltCallbackCh2     : callback when a half transfer is completed on Ch2.
ARM GAS  /tmp/cc1emfwg.s 			page 6


 258:stm/stm32l4xx/STM32L4xx_HAL_Driver/Src/stm32l4xx_hal_dac.c ****       (+) ConvHalfCpltCallbackCh2 : callback when a transfer is completed on Ch2.
 259:stm/stm32l4xx/STM32L4xx_HAL_Driver/Src/stm32l4xx_hal_dac.c ****       (+) ErrorCallbackCh2        : callback when an error occurs on Ch2.
 260:stm/stm32l4xx/STM32L4xx_HAL_Driver/Src/stm32l4xx_hal_dac.c ****       (+) DMAUnderrunCallbackCh2  : callback when an underrun error occurs on Ch2.
 261:stm/stm32l4xx/STM32L4xx_HAL_Driver/Src/stm32l4xx_hal_dac.c ****       (+) MspInitCallback         : DAC MspInit.
 262:stm/stm32l4xx/STM32L4xx_HAL_Driver/Src/stm32l4xx_hal_dac.c ****       (+) MspDeInitCallback       : DAC MspdeInit.
 263:stm/stm32l4xx/STM32L4xx_HAL_Driver/Src/stm32l4xx_hal_dac.c ****       This function takes as parameters the HAL peripheral handle, the Callback ID
 264:stm/stm32l4xx/STM32L4xx_HAL_Driver/Src/stm32l4xx_hal_dac.c ****       and a pointer to the user callback function.
 265:stm/stm32l4xx/STM32L4xx_HAL_Driver/Src/stm32l4xx_hal_dac.c **** 
 266:stm/stm32l4xx/STM32L4xx_HAL_Driver/Src/stm32l4xx_hal_dac.c ****     Use function HAL_DAC_UnRegisterCallback() to reset a callback to the default
 267:stm/stm32l4xx/STM32L4xx_HAL_Driver/Src/stm32l4xx_hal_dac.c ****       weak (overridden) function. It allows to reset following callbacks:
 268:stm/stm32l4xx/STM32L4xx_HAL_Driver/Src/stm32l4xx_hal_dac.c ****       (+) ConvCpltCallbackCh1     : callback when a half transfer is completed on Ch1.
 269:stm/stm32l4xx/STM32L4xx_HAL_Driver/Src/stm32l4xx_hal_dac.c ****       (+) ConvHalfCpltCallbackCh1 : callback when a transfer is completed on Ch1.
 270:stm/stm32l4xx/STM32L4xx_HAL_Driver/Src/stm32l4xx_hal_dac.c ****       (+) ErrorCallbackCh1        : callback when an error occurs on Ch1.
 271:stm/stm32l4xx/STM32L4xx_HAL_Driver/Src/stm32l4xx_hal_dac.c ****       (+) DMAUnderrunCallbackCh1  : callback when an underrun error occurs on Ch1.
 272:stm/stm32l4xx/STM32L4xx_HAL_Driver/Src/stm32l4xx_hal_dac.c ****       (+) ConvCpltCallbackCh2     : callback when a half transfer is completed on Ch2.
 273:stm/stm32l4xx/STM32L4xx_HAL_Driver/Src/stm32l4xx_hal_dac.c ****       (+) ConvHalfCpltCallbackCh2 : callback when a transfer is completed on Ch2.
 274:stm/stm32l4xx/STM32L4xx_HAL_Driver/Src/stm32l4xx_hal_dac.c ****       (+) ErrorCallbackCh2        : callback when an error occurs on Ch2.
 275:stm/stm32l4xx/STM32L4xx_HAL_Driver/Src/stm32l4xx_hal_dac.c ****       (+) DMAUnderrunCallbackCh2  : callback when an underrun error occurs on Ch2.
 276:stm/stm32l4xx/STM32L4xx_HAL_Driver/Src/stm32l4xx_hal_dac.c ****       (+) MspInitCallback         : DAC MspInit.
 277:stm/stm32l4xx/STM32L4xx_HAL_Driver/Src/stm32l4xx_hal_dac.c ****       (+) MspDeInitCallback       : DAC MspdeInit.
 278:stm/stm32l4xx/STM32L4xx_HAL_Driver/Src/stm32l4xx_hal_dac.c ****       (+) All Callbacks
 279:stm/stm32l4xx/STM32L4xx_HAL_Driver/Src/stm32l4xx_hal_dac.c ****       This function) takes as parameters the HAL peripheral handle and the Callback ID.
 280:stm/stm32l4xx/STM32L4xx_HAL_Driver/Src/stm32l4xx_hal_dac.c **** 
 281:stm/stm32l4xx/STM32L4xx_HAL_Driver/Src/stm32l4xx_hal_dac.c ****       By default, after the HAL_DAC_Init and if the state is HAL_DAC_STATE_RESET
 282:stm/stm32l4xx/STM32L4xx_HAL_Driver/Src/stm32l4xx_hal_dac.c ****       all callbacks are reset to the corresponding legacy weak (overridden) functions.
 283:stm/stm32l4xx/STM32L4xx_HAL_Driver/Src/stm32l4xx_hal_dac.c ****       Exception done for MspInit and MspDeInit callbacks that are respectively
 284:stm/stm32l4xx/STM32L4xx_HAL_Driver/Src/stm32l4xx_hal_dac.c ****       reset to the legacy weak (overridden) functions in the HAL_DAC_Init
 285:stm/stm32l4xx/STM32L4xx_HAL_Driver/Src/stm32l4xx_hal_dac.c ****       and HAL_DAC_DeInit only when these callbacks are null (not registered beforehand).
 286:stm/stm32l4xx/STM32L4xx_HAL_Driver/Src/stm32l4xx_hal_dac.c ****       If not, MspInit or MspDeInit are not null, the HAL_DAC_Init and HAL_DAC_DeInit
 287:stm/stm32l4xx/STM32L4xx_HAL_Driver/Src/stm32l4xx_hal_dac.c ****       keep and use the user MspInit/MspDeInit callbacks (registered beforehand)
 288:stm/stm32l4xx/STM32L4xx_HAL_Driver/Src/stm32l4xx_hal_dac.c **** 
 289:stm/stm32l4xx/STM32L4xx_HAL_Driver/Src/stm32l4xx_hal_dac.c ****       Callbacks can be registered/unregistered in READY state only.
 290:stm/stm32l4xx/STM32L4xx_HAL_Driver/Src/stm32l4xx_hal_dac.c ****       Exception done for MspInit/MspDeInit callbacks that can be registered/unregistered
 291:stm/stm32l4xx/STM32L4xx_HAL_Driver/Src/stm32l4xx_hal_dac.c ****       in READY or RESET state, thus registered (user) MspInit/DeInit callbacks can be used
 292:stm/stm32l4xx/STM32L4xx_HAL_Driver/Src/stm32l4xx_hal_dac.c ****       during the Init/DeInit.
 293:stm/stm32l4xx/STM32L4xx_HAL_Driver/Src/stm32l4xx_hal_dac.c ****       In that case first register the MspInit/MspDeInit user callbacks
 294:stm/stm32l4xx/STM32L4xx_HAL_Driver/Src/stm32l4xx_hal_dac.c ****       using HAL_DAC_RegisterCallback before calling HAL_DAC_DeInit
 295:stm/stm32l4xx/STM32L4xx_HAL_Driver/Src/stm32l4xx_hal_dac.c ****       or HAL_DAC_Init function.
 296:stm/stm32l4xx/STM32L4xx_HAL_Driver/Src/stm32l4xx_hal_dac.c **** 
 297:stm/stm32l4xx/STM32L4xx_HAL_Driver/Src/stm32l4xx_hal_dac.c ****       When The compilation define USE_HAL_DAC_REGISTER_CALLBACKS is set to 0 or
 298:stm/stm32l4xx/STM32L4xx_HAL_Driver/Src/stm32l4xx_hal_dac.c ****       not defined, the callback registering feature is not available
 299:stm/stm32l4xx/STM32L4xx_HAL_Driver/Src/stm32l4xx_hal_dac.c ****       and weak (overridden) callbacks are used.
 300:stm/stm32l4xx/STM32L4xx_HAL_Driver/Src/stm32l4xx_hal_dac.c **** 
 301:stm/stm32l4xx/STM32L4xx_HAL_Driver/Src/stm32l4xx_hal_dac.c ****      *** DAC HAL driver macros list ***
 302:stm/stm32l4xx/STM32L4xx_HAL_Driver/Src/stm32l4xx_hal_dac.c ****      =============================================
 303:stm/stm32l4xx/STM32L4xx_HAL_Driver/Src/stm32l4xx_hal_dac.c ****      [..]
 304:stm/stm32l4xx/STM32L4xx_HAL_Driver/Src/stm32l4xx_hal_dac.c ****        Below the list of most used macros in DAC HAL driver.
 305:stm/stm32l4xx/STM32L4xx_HAL_Driver/Src/stm32l4xx_hal_dac.c **** 
 306:stm/stm32l4xx/STM32L4xx_HAL_Driver/Src/stm32l4xx_hal_dac.c ****       (+) __HAL_DAC_ENABLE : Enable the DAC peripheral
 307:stm/stm32l4xx/STM32L4xx_HAL_Driver/Src/stm32l4xx_hal_dac.c ****       (+) __HAL_DAC_DISABLE : Disable the DAC peripheral
 308:stm/stm32l4xx/STM32L4xx_HAL_Driver/Src/stm32l4xx_hal_dac.c ****       (+) __HAL_DAC_CLEAR_FLAG: Clear the DAC's pending flags
 309:stm/stm32l4xx/STM32L4xx_HAL_Driver/Src/stm32l4xx_hal_dac.c ****       (+) __HAL_DAC_GET_FLAG: Get the selected DAC's flag status
 310:stm/stm32l4xx/STM32L4xx_HAL_Driver/Src/stm32l4xx_hal_dac.c **** 
 311:stm/stm32l4xx/STM32L4xx_HAL_Driver/Src/stm32l4xx_hal_dac.c ****      [..]
 312:stm/stm32l4xx/STM32L4xx_HAL_Driver/Src/stm32l4xx_hal_dac.c ****       (@) You can refer to the DAC HAL driver header file for more useful macros
 313:stm/stm32l4xx/STM32L4xx_HAL_Driver/Src/stm32l4xx_hal_dac.c **** 
 314:stm/stm32l4xx/STM32L4xx_HAL_Driver/Src/stm32l4xx_hal_dac.c ****  @endverbatim
ARM GAS  /tmp/cc1emfwg.s 			page 7


 315:stm/stm32l4xx/STM32L4xx_HAL_Driver/Src/stm32l4xx_hal_dac.c ****   ******************************************************************************
 316:stm/stm32l4xx/STM32L4xx_HAL_Driver/Src/stm32l4xx_hal_dac.c ****   */
 317:stm/stm32l4xx/STM32L4xx_HAL_Driver/Src/stm32l4xx_hal_dac.c **** 
 318:stm/stm32l4xx/STM32L4xx_HAL_Driver/Src/stm32l4xx_hal_dac.c **** /* Includes ------------------------------------------------------------------*/
 319:stm/stm32l4xx/STM32L4xx_HAL_Driver/Src/stm32l4xx_hal_dac.c **** #include "stm32l4xx_hal.h"
 320:stm/stm32l4xx/STM32L4xx_HAL_Driver/Src/stm32l4xx_hal_dac.c **** 
 321:stm/stm32l4xx/STM32L4xx_HAL_Driver/Src/stm32l4xx_hal_dac.c **** /** @addtogroup STM32L4xx_HAL_Driver
 322:stm/stm32l4xx/STM32L4xx_HAL_Driver/Src/stm32l4xx_hal_dac.c ****   * @{
 323:stm/stm32l4xx/STM32L4xx_HAL_Driver/Src/stm32l4xx_hal_dac.c ****   */
 324:stm/stm32l4xx/STM32L4xx_HAL_Driver/Src/stm32l4xx_hal_dac.c **** 
 325:stm/stm32l4xx/STM32L4xx_HAL_Driver/Src/stm32l4xx_hal_dac.c **** #ifdef HAL_DAC_MODULE_ENABLED
 326:stm/stm32l4xx/STM32L4xx_HAL_Driver/Src/stm32l4xx_hal_dac.c **** #if defined(DAC1)
 327:stm/stm32l4xx/STM32L4xx_HAL_Driver/Src/stm32l4xx_hal_dac.c **** 
 328:stm/stm32l4xx/STM32L4xx_HAL_Driver/Src/stm32l4xx_hal_dac.c ****   /** @defgroup DAC DAC
 329:stm/stm32l4xx/STM32L4xx_HAL_Driver/Src/stm32l4xx_hal_dac.c ****   * @brief DAC driver modules
 330:stm/stm32l4xx/STM32L4xx_HAL_Driver/Src/stm32l4xx_hal_dac.c ****   * @{
 331:stm/stm32l4xx/STM32L4xx_HAL_Driver/Src/stm32l4xx_hal_dac.c ****   */
 332:stm/stm32l4xx/STM32L4xx_HAL_Driver/Src/stm32l4xx_hal_dac.c **** 
 333:stm/stm32l4xx/STM32L4xx_HAL_Driver/Src/stm32l4xx_hal_dac.c **** /* Private typedef -----------------------------------------------------------*/
 334:stm/stm32l4xx/STM32L4xx_HAL_Driver/Src/stm32l4xx_hal_dac.c **** /* Private define ------------------------------------------------------------*/
 335:stm/stm32l4xx/STM32L4xx_HAL_Driver/Src/stm32l4xx_hal_dac.c **** /* Private constants ---------------------------------------------------------*/
 336:stm/stm32l4xx/STM32L4xx_HAL_Driver/Src/stm32l4xx_hal_dac.c **** /** @addtogroup DAC_Private_Constants DAC Private Constants
 337:stm/stm32l4xx/STM32L4xx_HAL_Driver/Src/stm32l4xx_hal_dac.c ****   * @{
 338:stm/stm32l4xx/STM32L4xx_HAL_Driver/Src/stm32l4xx_hal_dac.c ****   */
 339:stm/stm32l4xx/STM32L4xx_HAL_Driver/Src/stm32l4xx_hal_dac.c **** #define TIMEOUT_DAC_CALIBCONFIG        1U         /* 1   ms        */
 340:stm/stm32l4xx/STM32L4xx_HAL_Driver/Src/stm32l4xx_hal_dac.c **** #define HFSEL_ENABLE_THRESHOLD_80MHZ   80000000U  /* 80 MHz        */
 341:stm/stm32l4xx/STM32L4xx_HAL_Driver/Src/stm32l4xx_hal_dac.c **** 
 342:stm/stm32l4xx/STM32L4xx_HAL_Driver/Src/stm32l4xx_hal_dac.c **** /**
 343:stm/stm32l4xx/STM32L4xx_HAL_Driver/Src/stm32l4xx_hal_dac.c ****   * @}
 344:stm/stm32l4xx/STM32L4xx_HAL_Driver/Src/stm32l4xx_hal_dac.c ****   */
 345:stm/stm32l4xx/STM32L4xx_HAL_Driver/Src/stm32l4xx_hal_dac.c **** 
 346:stm/stm32l4xx/STM32L4xx_HAL_Driver/Src/stm32l4xx_hal_dac.c **** /* Private macro -------------------------------------------------------------*/
 347:stm/stm32l4xx/STM32L4xx_HAL_Driver/Src/stm32l4xx_hal_dac.c **** /* Private variables ---------------------------------------------------------*/
 348:stm/stm32l4xx/STM32L4xx_HAL_Driver/Src/stm32l4xx_hal_dac.c **** /* Private function prototypes -----------------------------------------------*/
 349:stm/stm32l4xx/STM32L4xx_HAL_Driver/Src/stm32l4xx_hal_dac.c **** /* Exported functions -------------------------------------------------------*/
 350:stm/stm32l4xx/STM32L4xx_HAL_Driver/Src/stm32l4xx_hal_dac.c **** 
 351:stm/stm32l4xx/STM32L4xx_HAL_Driver/Src/stm32l4xx_hal_dac.c **** /** @defgroup DAC_Exported_Functions DAC Exported Functions
 352:stm/stm32l4xx/STM32L4xx_HAL_Driver/Src/stm32l4xx_hal_dac.c ****   * @{
 353:stm/stm32l4xx/STM32L4xx_HAL_Driver/Src/stm32l4xx_hal_dac.c ****   */
 354:stm/stm32l4xx/STM32L4xx_HAL_Driver/Src/stm32l4xx_hal_dac.c **** 
 355:stm/stm32l4xx/STM32L4xx_HAL_Driver/Src/stm32l4xx_hal_dac.c **** /** @defgroup DAC_Exported_Functions_Group1 Initialization and de-initialization functions
 356:stm/stm32l4xx/STM32L4xx_HAL_Driver/Src/stm32l4xx_hal_dac.c ****  *  @brief    Initialization and Configuration functions
 357:stm/stm32l4xx/STM32L4xx_HAL_Driver/Src/stm32l4xx_hal_dac.c ****  *
 358:stm/stm32l4xx/STM32L4xx_HAL_Driver/Src/stm32l4xx_hal_dac.c **** @verbatim
 359:stm/stm32l4xx/STM32L4xx_HAL_Driver/Src/stm32l4xx_hal_dac.c ****   ==============================================================================
 360:stm/stm32l4xx/STM32L4xx_HAL_Driver/Src/stm32l4xx_hal_dac.c ****               ##### Initialization and de-initialization functions #####
 361:stm/stm32l4xx/STM32L4xx_HAL_Driver/Src/stm32l4xx_hal_dac.c ****   ==============================================================================
 362:stm/stm32l4xx/STM32L4xx_HAL_Driver/Src/stm32l4xx_hal_dac.c ****     [..]  This section provides functions allowing to:
 363:stm/stm32l4xx/STM32L4xx_HAL_Driver/Src/stm32l4xx_hal_dac.c ****       (+) Initialize and configure the DAC.
 364:stm/stm32l4xx/STM32L4xx_HAL_Driver/Src/stm32l4xx_hal_dac.c ****       (+) De-initialize the DAC.
 365:stm/stm32l4xx/STM32L4xx_HAL_Driver/Src/stm32l4xx_hal_dac.c **** 
 366:stm/stm32l4xx/STM32L4xx_HAL_Driver/Src/stm32l4xx_hal_dac.c **** @endverbatim
 367:stm/stm32l4xx/STM32L4xx_HAL_Driver/Src/stm32l4xx_hal_dac.c ****   * @{
 368:stm/stm32l4xx/STM32L4xx_HAL_Driver/Src/stm32l4xx_hal_dac.c ****   */
 369:stm/stm32l4xx/STM32L4xx_HAL_Driver/Src/stm32l4xx_hal_dac.c **** 
 370:stm/stm32l4xx/STM32L4xx_HAL_Driver/Src/stm32l4xx_hal_dac.c **** /**
 371:stm/stm32l4xx/STM32L4xx_HAL_Driver/Src/stm32l4xx_hal_dac.c ****   * @brief  Initialize the DAC peripheral according to the specified parameters
ARM GAS  /tmp/cc1emfwg.s 			page 8


 372:stm/stm32l4xx/STM32L4xx_HAL_Driver/Src/stm32l4xx_hal_dac.c ****   *         in the DAC_InitStruct and initialize the associated handle.
 373:stm/stm32l4xx/STM32L4xx_HAL_Driver/Src/stm32l4xx_hal_dac.c ****   * @param  hdac pointer to a DAC_HandleTypeDef structure that contains
 374:stm/stm32l4xx/STM32L4xx_HAL_Driver/Src/stm32l4xx_hal_dac.c ****   *         the configuration information for the specified DAC.
 375:stm/stm32l4xx/STM32L4xx_HAL_Driver/Src/stm32l4xx_hal_dac.c ****   * @retval HAL status
 376:stm/stm32l4xx/STM32L4xx_HAL_Driver/Src/stm32l4xx_hal_dac.c ****   */
 377:stm/stm32l4xx/STM32L4xx_HAL_Driver/Src/stm32l4xx_hal_dac.c **** HAL_StatusTypeDef HAL_DAC_Init(DAC_HandleTypeDef *hdac)
 378:stm/stm32l4xx/STM32L4xx_HAL_Driver/Src/stm32l4xx_hal_dac.c **** {
 379:stm/stm32l4xx/STM32L4xx_HAL_Driver/Src/stm32l4xx_hal_dac.c ****   /* Check DAC handle */
 380:stm/stm32l4xx/STM32L4xx_HAL_Driver/Src/stm32l4xx_hal_dac.c ****   if (hdac == NULL)
 381:stm/stm32l4xx/STM32L4xx_HAL_Driver/Src/stm32l4xx_hal_dac.c ****   {
 382:stm/stm32l4xx/STM32L4xx_HAL_Driver/Src/stm32l4xx_hal_dac.c ****      return HAL_ERROR;
 383:stm/stm32l4xx/STM32L4xx_HAL_Driver/Src/stm32l4xx_hal_dac.c ****   }
 384:stm/stm32l4xx/STM32L4xx_HAL_Driver/Src/stm32l4xx_hal_dac.c ****   /* Check the parameters */
 385:stm/stm32l4xx/STM32L4xx_HAL_Driver/Src/stm32l4xx_hal_dac.c ****   assert_param(IS_DAC_ALL_INSTANCE(hdac->Instance));
 386:stm/stm32l4xx/STM32L4xx_HAL_Driver/Src/stm32l4xx_hal_dac.c **** 
 387:stm/stm32l4xx/STM32L4xx_HAL_Driver/Src/stm32l4xx_hal_dac.c ****   if (hdac->State == HAL_DAC_STATE_RESET)
 388:stm/stm32l4xx/STM32L4xx_HAL_Driver/Src/stm32l4xx_hal_dac.c ****   {
 389:stm/stm32l4xx/STM32L4xx_HAL_Driver/Src/stm32l4xx_hal_dac.c **** #if (USE_HAL_DAC_REGISTER_CALLBACKS == 1)
 390:stm/stm32l4xx/STM32L4xx_HAL_Driver/Src/stm32l4xx_hal_dac.c ****     /* Init the DAC Callback settings */
 391:stm/stm32l4xx/STM32L4xx_HAL_Driver/Src/stm32l4xx_hal_dac.c ****     hdac->ConvCpltCallbackCh1           = HAL_DAC_ConvCpltCallbackCh1;
 392:stm/stm32l4xx/STM32L4xx_HAL_Driver/Src/stm32l4xx_hal_dac.c ****     hdac->ConvHalfCpltCallbackCh1       = HAL_DAC_ConvHalfCpltCallbackCh1;
 393:stm/stm32l4xx/STM32L4xx_HAL_Driver/Src/stm32l4xx_hal_dac.c ****     hdac->ErrorCallbackCh1              = HAL_DAC_ErrorCallbackCh1;
 394:stm/stm32l4xx/STM32L4xx_HAL_Driver/Src/stm32l4xx_hal_dac.c ****     hdac->DMAUnderrunCallbackCh1        = HAL_DAC_DMAUnderrunCallbackCh1;
 395:stm/stm32l4xx/STM32L4xx_HAL_Driver/Src/stm32l4xx_hal_dac.c **** 
 396:stm/stm32l4xx/STM32L4xx_HAL_Driver/Src/stm32l4xx_hal_dac.c **** #if defined (STM32L431xx) || defined (STM32L432xx) || defined (STM32L433xx) || defined (STM32L442xx
 397:stm/stm32l4xx/STM32L4xx_HAL_Driver/Src/stm32l4xx_hal_dac.c ****     defined (STM32L471xx) || defined (STM32L475xx) || defined (STM32L476xx) || defined (STM32L485xx
 398:stm/stm32l4xx/STM32L4xx_HAL_Driver/Src/stm32l4xx_hal_dac.c ****     defined (STM32L4P5xx) || defined (STM32L4Q5xx) || \
 399:stm/stm32l4xx/STM32L4xx_HAL_Driver/Src/stm32l4xx_hal_dac.c ****     defined (STM32L4R5xx) || defined (STM32L4R7xx) || defined (STM32L4R9xx) || defined (STM32L4S5xx
 400:stm/stm32l4xx/STM32L4xx_HAL_Driver/Src/stm32l4xx_hal_dac.c ****     hdac->ConvCpltCallbackCh2           = HAL_DACEx_ConvCpltCallbackCh2;
 401:stm/stm32l4xx/STM32L4xx_HAL_Driver/Src/stm32l4xx_hal_dac.c ****     hdac->ConvHalfCpltCallbackCh2       = HAL_DACEx_ConvHalfCpltCallbackCh2;
 402:stm/stm32l4xx/STM32L4xx_HAL_Driver/Src/stm32l4xx_hal_dac.c ****     hdac->ErrorCallbackCh2              = HAL_DACEx_ErrorCallbackCh2;
 403:stm/stm32l4xx/STM32L4xx_HAL_Driver/Src/stm32l4xx_hal_dac.c ****     hdac->DMAUnderrunCallbackCh2        = HAL_DACEx_DMAUnderrunCallbackCh2;
 404:stm/stm32l4xx/STM32L4xx_HAL_Driver/Src/stm32l4xx_hal_dac.c **** #endif  /* STM32L431xx STM32L432xx STM32L433xx STM32L442xx STM32L443xx                         */
 405:stm/stm32l4xx/STM32L4xx_HAL_Driver/Src/stm32l4xx_hal_dac.c ****         /* STM32L471xx STM32L475xx STM32L476xx STM32L485xx STM32L486xx STM32L496xx STM32L4A6xx */
 406:stm/stm32l4xx/STM32L4xx_HAL_Driver/Src/stm32l4xx_hal_dac.c ****         /* STM32L4P5xx STM32L4Q5xx                                                             */
 407:stm/stm32l4xx/STM32L4xx_HAL_Driver/Src/stm32l4xx_hal_dac.c ****         /* STM32L4R5xx STM32L4R7xx STM32L4R9xx STM32L4S5xx STM32L4S7xx STM32L4S9xx             */
 408:stm/stm32l4xx/STM32L4xx_HAL_Driver/Src/stm32l4xx_hal_dac.c **** 
 409:stm/stm32l4xx/STM32L4xx_HAL_Driver/Src/stm32l4xx_hal_dac.c ****     if (hdac->MspInitCallback == NULL)
 410:stm/stm32l4xx/STM32L4xx_HAL_Driver/Src/stm32l4xx_hal_dac.c ****     {
 411:stm/stm32l4xx/STM32L4xx_HAL_Driver/Src/stm32l4xx_hal_dac.c ****       hdac->MspInitCallback             = HAL_DAC_MspInit;
 412:stm/stm32l4xx/STM32L4xx_HAL_Driver/Src/stm32l4xx_hal_dac.c ****     }
 413:stm/stm32l4xx/STM32L4xx_HAL_Driver/Src/stm32l4xx_hal_dac.c **** #endif /* USE_HAL_DAC_REGISTER_CALLBACKS */
 414:stm/stm32l4xx/STM32L4xx_HAL_Driver/Src/stm32l4xx_hal_dac.c **** 
 415:stm/stm32l4xx/STM32L4xx_HAL_Driver/Src/stm32l4xx_hal_dac.c ****     /* Allocate lock resource and initialize it */
 416:stm/stm32l4xx/STM32L4xx_HAL_Driver/Src/stm32l4xx_hal_dac.c ****     hdac->Lock = HAL_UNLOCKED;
 417:stm/stm32l4xx/STM32L4xx_HAL_Driver/Src/stm32l4xx_hal_dac.c **** 
 418:stm/stm32l4xx/STM32L4xx_HAL_Driver/Src/stm32l4xx_hal_dac.c **** #if (USE_HAL_DAC_REGISTER_CALLBACKS == 1)
 419:stm/stm32l4xx/STM32L4xx_HAL_Driver/Src/stm32l4xx_hal_dac.c ****     /* Init the low level hardware */
 420:stm/stm32l4xx/STM32L4xx_HAL_Driver/Src/stm32l4xx_hal_dac.c ****     hdac->MspInitCallback(hdac);
 421:stm/stm32l4xx/STM32L4xx_HAL_Driver/Src/stm32l4xx_hal_dac.c **** #else
 422:stm/stm32l4xx/STM32L4xx_HAL_Driver/Src/stm32l4xx_hal_dac.c ****     /* Init the low level hardware */
 423:stm/stm32l4xx/STM32L4xx_HAL_Driver/Src/stm32l4xx_hal_dac.c ****     HAL_DAC_MspInit(hdac);
 424:stm/stm32l4xx/STM32L4xx_HAL_Driver/Src/stm32l4xx_hal_dac.c **** #endif /* USE_HAL_DAC_REGISTER_CALLBACKS */
 425:stm/stm32l4xx/STM32L4xx_HAL_Driver/Src/stm32l4xx_hal_dac.c ****   }
 426:stm/stm32l4xx/STM32L4xx_HAL_Driver/Src/stm32l4xx_hal_dac.c **** 
 427:stm/stm32l4xx/STM32L4xx_HAL_Driver/Src/stm32l4xx_hal_dac.c ****   /* Initialize the DAC state*/
 428:stm/stm32l4xx/STM32L4xx_HAL_Driver/Src/stm32l4xx_hal_dac.c ****   hdac->State = HAL_DAC_STATE_BUSY;
ARM GAS  /tmp/cc1emfwg.s 			page 9


 429:stm/stm32l4xx/STM32L4xx_HAL_Driver/Src/stm32l4xx_hal_dac.c **** 
 430:stm/stm32l4xx/STM32L4xx_HAL_Driver/Src/stm32l4xx_hal_dac.c ****   /* Set DAC error code to none */
 431:stm/stm32l4xx/STM32L4xx_HAL_Driver/Src/stm32l4xx_hal_dac.c ****   hdac->ErrorCode = HAL_DAC_ERROR_NONE;
 432:stm/stm32l4xx/STM32L4xx_HAL_Driver/Src/stm32l4xx_hal_dac.c **** 
 433:stm/stm32l4xx/STM32L4xx_HAL_Driver/Src/stm32l4xx_hal_dac.c ****   /* Initialize the DAC state*/
 434:stm/stm32l4xx/STM32L4xx_HAL_Driver/Src/stm32l4xx_hal_dac.c ****   hdac->State = HAL_DAC_STATE_READY;
 435:stm/stm32l4xx/STM32L4xx_HAL_Driver/Src/stm32l4xx_hal_dac.c **** 
 436:stm/stm32l4xx/STM32L4xx_HAL_Driver/Src/stm32l4xx_hal_dac.c ****   /* Return function status */
 437:stm/stm32l4xx/STM32L4xx_HAL_Driver/Src/stm32l4xx_hal_dac.c ****   return HAL_OK;
 438:stm/stm32l4xx/STM32L4xx_HAL_Driver/Src/stm32l4xx_hal_dac.c **** }
 439:stm/stm32l4xx/STM32L4xx_HAL_Driver/Src/stm32l4xx_hal_dac.c **** 
 440:stm/stm32l4xx/STM32L4xx_HAL_Driver/Src/stm32l4xx_hal_dac.c **** /**
 441:stm/stm32l4xx/STM32L4xx_HAL_Driver/Src/stm32l4xx_hal_dac.c ****   * @brief  Deinitialize the DAC peripheral registers to their default reset values.
 442:stm/stm32l4xx/STM32L4xx_HAL_Driver/Src/stm32l4xx_hal_dac.c ****   * @param  hdac pointer to a DAC_HandleTypeDef structure that contains
 443:stm/stm32l4xx/STM32L4xx_HAL_Driver/Src/stm32l4xx_hal_dac.c ****   *         the configuration information for the specified DAC.
 444:stm/stm32l4xx/STM32L4xx_HAL_Driver/Src/stm32l4xx_hal_dac.c ****   * @retval HAL status
 445:stm/stm32l4xx/STM32L4xx_HAL_Driver/Src/stm32l4xx_hal_dac.c ****   */
 446:stm/stm32l4xx/STM32L4xx_HAL_Driver/Src/stm32l4xx_hal_dac.c **** HAL_StatusTypeDef HAL_DAC_DeInit(DAC_HandleTypeDef *hdac)
 447:stm/stm32l4xx/STM32L4xx_HAL_Driver/Src/stm32l4xx_hal_dac.c **** {
 448:stm/stm32l4xx/STM32L4xx_HAL_Driver/Src/stm32l4xx_hal_dac.c ****   /* Check DAC handle */
 449:stm/stm32l4xx/STM32L4xx_HAL_Driver/Src/stm32l4xx_hal_dac.c ****   if (hdac == NULL)
 450:stm/stm32l4xx/STM32L4xx_HAL_Driver/Src/stm32l4xx_hal_dac.c ****   {
 451:stm/stm32l4xx/STM32L4xx_HAL_Driver/Src/stm32l4xx_hal_dac.c ****     return HAL_ERROR;
 452:stm/stm32l4xx/STM32L4xx_HAL_Driver/Src/stm32l4xx_hal_dac.c ****   }
 453:stm/stm32l4xx/STM32L4xx_HAL_Driver/Src/stm32l4xx_hal_dac.c **** 
 454:stm/stm32l4xx/STM32L4xx_HAL_Driver/Src/stm32l4xx_hal_dac.c ****   /* Check the parameters */
 455:stm/stm32l4xx/STM32L4xx_HAL_Driver/Src/stm32l4xx_hal_dac.c ****   assert_param(IS_DAC_ALL_INSTANCE(hdac->Instance));
 456:stm/stm32l4xx/STM32L4xx_HAL_Driver/Src/stm32l4xx_hal_dac.c **** 
 457:stm/stm32l4xx/STM32L4xx_HAL_Driver/Src/stm32l4xx_hal_dac.c ****   /* Change DAC state */
 458:stm/stm32l4xx/STM32L4xx_HAL_Driver/Src/stm32l4xx_hal_dac.c ****   hdac->State = HAL_DAC_STATE_BUSY;
 459:stm/stm32l4xx/STM32L4xx_HAL_Driver/Src/stm32l4xx_hal_dac.c **** 
 460:stm/stm32l4xx/STM32L4xx_HAL_Driver/Src/stm32l4xx_hal_dac.c **** #if (USE_HAL_DAC_REGISTER_CALLBACKS == 1)
 461:stm/stm32l4xx/STM32L4xx_HAL_Driver/Src/stm32l4xx_hal_dac.c ****   if (hdac->MspDeInitCallback == NULL)
 462:stm/stm32l4xx/STM32L4xx_HAL_Driver/Src/stm32l4xx_hal_dac.c ****   {
 463:stm/stm32l4xx/STM32L4xx_HAL_Driver/Src/stm32l4xx_hal_dac.c ****     hdac->MspDeInitCallback = HAL_DAC_MspDeInit;
 464:stm/stm32l4xx/STM32L4xx_HAL_Driver/Src/stm32l4xx_hal_dac.c ****   }
 465:stm/stm32l4xx/STM32L4xx_HAL_Driver/Src/stm32l4xx_hal_dac.c ****   /* DeInit the low level hardware */
 466:stm/stm32l4xx/STM32L4xx_HAL_Driver/Src/stm32l4xx_hal_dac.c ****   hdac->MspDeInitCallback(hdac);
 467:stm/stm32l4xx/STM32L4xx_HAL_Driver/Src/stm32l4xx_hal_dac.c **** #else
 468:stm/stm32l4xx/STM32L4xx_HAL_Driver/Src/stm32l4xx_hal_dac.c ****   /* DeInit the low level hardware */
 469:stm/stm32l4xx/STM32L4xx_HAL_Driver/Src/stm32l4xx_hal_dac.c ****   HAL_DAC_MspDeInit(hdac);
 470:stm/stm32l4xx/STM32L4xx_HAL_Driver/Src/stm32l4xx_hal_dac.c **** #endif /* USE_HAL_DAC_REGISTER_CALLBACKS */
 471:stm/stm32l4xx/STM32L4xx_HAL_Driver/Src/stm32l4xx_hal_dac.c **** 
 472:stm/stm32l4xx/STM32L4xx_HAL_Driver/Src/stm32l4xx_hal_dac.c ****   /* Set DAC error code to none */
 473:stm/stm32l4xx/STM32L4xx_HAL_Driver/Src/stm32l4xx_hal_dac.c ****   hdac->ErrorCode = HAL_DAC_ERROR_NONE;
 474:stm/stm32l4xx/STM32L4xx_HAL_Driver/Src/stm32l4xx_hal_dac.c **** 
 475:stm/stm32l4xx/STM32L4xx_HAL_Driver/Src/stm32l4xx_hal_dac.c ****   /* Change DAC state */
 476:stm/stm32l4xx/STM32L4xx_HAL_Driver/Src/stm32l4xx_hal_dac.c ****   hdac->State = HAL_DAC_STATE_RESET;
 477:stm/stm32l4xx/STM32L4xx_HAL_Driver/Src/stm32l4xx_hal_dac.c **** 
 478:stm/stm32l4xx/STM32L4xx_HAL_Driver/Src/stm32l4xx_hal_dac.c ****   /* Release Lock */
 479:stm/stm32l4xx/STM32L4xx_HAL_Driver/Src/stm32l4xx_hal_dac.c ****   __HAL_UNLOCK(hdac);
 480:stm/stm32l4xx/STM32L4xx_HAL_Driver/Src/stm32l4xx_hal_dac.c **** 
 481:stm/stm32l4xx/STM32L4xx_HAL_Driver/Src/stm32l4xx_hal_dac.c ****   /* Return function status */
 482:stm/stm32l4xx/STM32L4xx_HAL_Driver/Src/stm32l4xx_hal_dac.c ****   return HAL_OK;
 483:stm/stm32l4xx/STM32L4xx_HAL_Driver/Src/stm32l4xx_hal_dac.c **** }
 484:stm/stm32l4xx/STM32L4xx_HAL_Driver/Src/stm32l4xx_hal_dac.c **** 
 485:stm/stm32l4xx/STM32L4xx_HAL_Driver/Src/stm32l4xx_hal_dac.c **** /**
ARM GAS  /tmp/cc1emfwg.s 			page 10


 486:stm/stm32l4xx/STM32L4xx_HAL_Driver/Src/stm32l4xx_hal_dac.c ****   * @brief  Initialize the DAC MSP.
 487:stm/stm32l4xx/STM32L4xx_HAL_Driver/Src/stm32l4xx_hal_dac.c ****   * @param  hdac pointer to a DAC_HandleTypeDef structure that contains
 488:stm/stm32l4xx/STM32L4xx_HAL_Driver/Src/stm32l4xx_hal_dac.c ****   *         the configuration information for the specified DAC.
 489:stm/stm32l4xx/STM32L4xx_HAL_Driver/Src/stm32l4xx_hal_dac.c ****   * @retval None
 490:stm/stm32l4xx/STM32L4xx_HAL_Driver/Src/stm32l4xx_hal_dac.c ****   */
 491:stm/stm32l4xx/STM32L4xx_HAL_Driver/Src/stm32l4xx_hal_dac.c **** __weak void HAL_DAC_MspInit(DAC_HandleTypeDef *hdac)
 492:stm/stm32l4xx/STM32L4xx_HAL_Driver/Src/stm32l4xx_hal_dac.c **** {
  30              		.loc 1 492 1 view -0
  31              		.cfi_startproc
  32              		@ args = 0, pretend = 0, frame = 0
  33              		@ frame_needed = 0, uses_anonymous_args = 0
  34              		@ link register save eliminated.
 493:stm/stm32l4xx/STM32L4xx_HAL_Driver/Src/stm32l4xx_hal_dac.c ****   /* Prevent unused argument(s) compilation warning */
 494:stm/stm32l4xx/STM32L4xx_HAL_Driver/Src/stm32l4xx_hal_dac.c ****   UNUSED(hdac);
  35              		.loc 1 494 3 view .LVU1
 495:stm/stm32l4xx/STM32L4xx_HAL_Driver/Src/stm32l4xx_hal_dac.c **** 
 496:stm/stm32l4xx/STM32L4xx_HAL_Driver/Src/stm32l4xx_hal_dac.c ****   /* NOTE : This function should not be modified, when the callback is needed,
 497:stm/stm32l4xx/STM32L4xx_HAL_Driver/Src/stm32l4xx_hal_dac.c ****             the HAL_DAC_MspInit could be implemented in the user file
 498:stm/stm32l4xx/STM32L4xx_HAL_Driver/Src/stm32l4xx_hal_dac.c ****    */
 499:stm/stm32l4xx/STM32L4xx_HAL_Driver/Src/stm32l4xx_hal_dac.c **** }
  36              		.loc 1 499 1 is_stmt 0 view .LVU2
  37 0000 7047     		bx	lr
  38              		.cfi_endproc
  39              	.LFE290:
  41              		.section	.text.HAL_DAC_Init,"ax",%progbits
  42              		.align	1
  43              		.global	HAL_DAC_Init
  44              		.syntax unified
  45              		.thumb
  46              		.thumb_func
  48              	HAL_DAC_Init:
  49              	.LVL1:
  50              	.LFB288:
 378:stm/stm32l4xx/STM32L4xx_HAL_Driver/Src/stm32l4xx_hal_dac.c ****   /* Check DAC handle */
  51              		.loc 1 378 1 is_stmt 1 view -0
  52              		.cfi_startproc
  53              		@ args = 0, pretend = 0, frame = 0
  54              		@ frame_needed = 0, uses_anonymous_args = 0
 380:stm/stm32l4xx/STM32L4xx_HAL_Driver/Src/stm32l4xx_hal_dac.c ****   {
  55              		.loc 1 380 3 view .LVU4
 380:stm/stm32l4xx/STM32L4xx_HAL_Driver/Src/stm32l4xx_hal_dac.c ****   {
  56              		.loc 1 380 6 is_stmt 0 view .LVU5
  57 0000 70B1     		cbz	r0, .L5
 378:stm/stm32l4xx/STM32L4xx_HAL_Driver/Src/stm32l4xx_hal_dac.c ****   /* Check DAC handle */
  58              		.loc 1 378 1 view .LVU6
  59 0002 10B5     		push	{r4, lr}
  60              	.LCFI0:
  61              		.cfi_def_cfa_offset 8
  62              		.cfi_offset 4, -8
  63              		.cfi_offset 14, -4
  64 0004 0446     		mov	r4, r0
 385:stm/stm32l4xx/STM32L4xx_HAL_Driver/Src/stm32l4xx_hal_dac.c **** 
  65              		.loc 1 385 3 is_stmt 1 view .LVU7
 387:stm/stm32l4xx/STM32L4xx_HAL_Driver/Src/stm32l4xx_hal_dac.c ****   {
  66              		.loc 1 387 3 view .LVU8
 387:stm/stm32l4xx/STM32L4xx_HAL_Driver/Src/stm32l4xx_hal_dac.c ****   {
  67              		.loc 1 387 11 is_stmt 0 view .LVU9
ARM GAS  /tmp/cc1emfwg.s 			page 11


  68 0006 0379     		ldrb	r3, [r0, #4]	@ zero_extendqisi2
 387:stm/stm32l4xx/STM32L4xx_HAL_Driver/Src/stm32l4xx_hal_dac.c ****   {
  69              		.loc 1 387 6 view .LVU10
  70 0008 33B1     		cbz	r3, .L10
  71              	.LVL2:
  72              	.L4:
 428:stm/stm32l4xx/STM32L4xx_HAL_Driver/Src/stm32l4xx_hal_dac.c **** 
  73              		.loc 1 428 3 is_stmt 1 view .LVU11
 428:stm/stm32l4xx/STM32L4xx_HAL_Driver/Src/stm32l4xx_hal_dac.c **** 
  74              		.loc 1 428 15 is_stmt 0 view .LVU12
  75 000a 0223     		movs	r3, #2
  76 000c 2371     		strb	r3, [r4, #4]
 431:stm/stm32l4xx/STM32L4xx_HAL_Driver/Src/stm32l4xx_hal_dac.c **** 
  77              		.loc 1 431 3 is_stmt 1 view .LVU13
 431:stm/stm32l4xx/STM32L4xx_HAL_Driver/Src/stm32l4xx_hal_dac.c **** 
  78              		.loc 1 431 19 is_stmt 0 view .LVU14
  79 000e 0020     		movs	r0, #0
  80 0010 2061     		str	r0, [r4, #16]
 434:stm/stm32l4xx/STM32L4xx_HAL_Driver/Src/stm32l4xx_hal_dac.c **** 
  81              		.loc 1 434 3 is_stmt 1 view .LVU15
 434:stm/stm32l4xx/STM32L4xx_HAL_Driver/Src/stm32l4xx_hal_dac.c **** 
  82              		.loc 1 434 15 is_stmt 0 view .LVU16
  83 0012 0123     		movs	r3, #1
  84 0014 2371     		strb	r3, [r4, #4]
 437:stm/stm32l4xx/STM32L4xx_HAL_Driver/Src/stm32l4xx_hal_dac.c **** }
  85              		.loc 1 437 3 is_stmt 1 view .LVU17
 438:stm/stm32l4xx/STM32L4xx_HAL_Driver/Src/stm32l4xx_hal_dac.c **** 
  86              		.loc 1 438 1 is_stmt 0 view .LVU18
  87 0016 10BD     		pop	{r4, pc}
  88              	.LVL3:
  89              	.L10:
 416:stm/stm32l4xx/STM32L4xx_HAL_Driver/Src/stm32l4xx_hal_dac.c **** 
  90              		.loc 1 416 5 is_stmt 1 view .LVU19
 416:stm/stm32l4xx/STM32L4xx_HAL_Driver/Src/stm32l4xx_hal_dac.c **** 
  91              		.loc 1 416 16 is_stmt 0 view .LVU20
  92 0018 4371     		strb	r3, [r0, #5]
 423:stm/stm32l4xx/STM32L4xx_HAL_Driver/Src/stm32l4xx_hal_dac.c **** #endif /* USE_HAL_DAC_REGISTER_CALLBACKS */
  93              		.loc 1 423 5 is_stmt 1 view .LVU21
  94 001a FFF7FEFF 		bl	HAL_DAC_MspInit
  95              	.LVL4:
 423:stm/stm32l4xx/STM32L4xx_HAL_Driver/Src/stm32l4xx_hal_dac.c **** #endif /* USE_HAL_DAC_REGISTER_CALLBACKS */
  96              		.loc 1 423 5 is_stmt 0 view .LVU22
  97 001e F4E7     		b	.L4
  98              	.LVL5:
  99              	.L5:
 100              	.LCFI1:
 101              		.cfi_def_cfa_offset 0
 102              		.cfi_restore 4
 103              		.cfi_restore 14
 382:stm/stm32l4xx/STM32L4xx_HAL_Driver/Src/stm32l4xx_hal_dac.c ****   }
 104              		.loc 1 382 13 view .LVU23
 105 0020 0120     		movs	r0, #1
 106              	.LVL6:
 438:stm/stm32l4xx/STM32L4xx_HAL_Driver/Src/stm32l4xx_hal_dac.c **** 
 107              		.loc 1 438 1 view .LVU24
 108 0022 7047     		bx	lr
 109              		.cfi_endproc
ARM GAS  /tmp/cc1emfwg.s 			page 12


 110              	.LFE288:
 112              		.section	.text.HAL_DAC_MspDeInit,"ax",%progbits
 113              		.align	1
 114              		.weak	HAL_DAC_MspDeInit
 115              		.syntax unified
 116              		.thumb
 117              		.thumb_func
 119              	HAL_DAC_MspDeInit:
 120              	.LVL7:
 121              	.LFB291:
 500:stm/stm32l4xx/STM32L4xx_HAL_Driver/Src/stm32l4xx_hal_dac.c **** 
 501:stm/stm32l4xx/STM32L4xx_HAL_Driver/Src/stm32l4xx_hal_dac.c **** /**
 502:stm/stm32l4xx/STM32L4xx_HAL_Driver/Src/stm32l4xx_hal_dac.c ****   * @brief  DeInitialize the DAC MSP.
 503:stm/stm32l4xx/STM32L4xx_HAL_Driver/Src/stm32l4xx_hal_dac.c ****   * @param  hdac pointer to a DAC_HandleTypeDef structure that contains
 504:stm/stm32l4xx/STM32L4xx_HAL_Driver/Src/stm32l4xx_hal_dac.c ****   *         the configuration information for the specified DAC.
 505:stm/stm32l4xx/STM32L4xx_HAL_Driver/Src/stm32l4xx_hal_dac.c ****   * @retval None
 506:stm/stm32l4xx/STM32L4xx_HAL_Driver/Src/stm32l4xx_hal_dac.c ****   */
 507:stm/stm32l4xx/STM32L4xx_HAL_Driver/Src/stm32l4xx_hal_dac.c **** __weak void HAL_DAC_MspDeInit(DAC_HandleTypeDef *hdac)
 508:stm/stm32l4xx/STM32L4xx_HAL_Driver/Src/stm32l4xx_hal_dac.c **** {
 122              		.loc 1 508 1 is_stmt 1 view -0
 123              		.cfi_startproc
 124              		@ args = 0, pretend = 0, frame = 0
 125              		@ frame_needed = 0, uses_anonymous_args = 0
 126              		@ link register save eliminated.
 509:stm/stm32l4xx/STM32L4xx_HAL_Driver/Src/stm32l4xx_hal_dac.c ****   /* Prevent unused argument(s) compilation warning */
 510:stm/stm32l4xx/STM32L4xx_HAL_Driver/Src/stm32l4xx_hal_dac.c ****   UNUSED(hdac);
 127              		.loc 1 510 3 view .LVU26
 511:stm/stm32l4xx/STM32L4xx_HAL_Driver/Src/stm32l4xx_hal_dac.c **** 
 512:stm/stm32l4xx/STM32L4xx_HAL_Driver/Src/stm32l4xx_hal_dac.c ****   /* NOTE : This function should not be modified, when the callback is needed,
 513:stm/stm32l4xx/STM32L4xx_HAL_Driver/Src/stm32l4xx_hal_dac.c ****             the HAL_DAC_MspDeInit could be implemented in the user file
 514:stm/stm32l4xx/STM32L4xx_HAL_Driver/Src/stm32l4xx_hal_dac.c ****    */
 515:stm/stm32l4xx/STM32L4xx_HAL_Driver/Src/stm32l4xx_hal_dac.c **** }
 128              		.loc 1 515 1 is_stmt 0 view .LVU27
 129 0000 7047     		bx	lr
 130              		.cfi_endproc
 131              	.LFE291:
 133              		.section	.text.HAL_DAC_DeInit,"ax",%progbits
 134              		.align	1
 135              		.global	HAL_DAC_DeInit
 136              		.syntax unified
 137              		.thumb
 138              		.thumb_func
 140              	HAL_DAC_DeInit:
 141              	.LVL8:
 142              	.LFB289:
 447:stm/stm32l4xx/STM32L4xx_HAL_Driver/Src/stm32l4xx_hal_dac.c ****   /* Check DAC handle */
 143              		.loc 1 447 1 is_stmt 1 view -0
 144              		.cfi_startproc
 145              		@ args = 0, pretend = 0, frame = 0
 146              		@ frame_needed = 0, uses_anonymous_args = 0
 449:stm/stm32l4xx/STM32L4xx_HAL_Driver/Src/stm32l4xx_hal_dac.c ****   {
 147              		.loc 1 449 3 view .LVU29
 449:stm/stm32l4xx/STM32L4xx_HAL_Driver/Src/stm32l4xx_hal_dac.c ****   {
 148              		.loc 1 449 6 is_stmt 0 view .LVU30
 149 0000 50B1     		cbz	r0, .L14
 447:stm/stm32l4xx/STM32L4xx_HAL_Driver/Src/stm32l4xx_hal_dac.c ****   /* Check DAC handle */
 150              		.loc 1 447 1 view .LVU31
ARM GAS  /tmp/cc1emfwg.s 			page 13


 151 0002 10B5     		push	{r4, lr}
 152              	.LCFI2:
 153              		.cfi_def_cfa_offset 8
 154              		.cfi_offset 4, -8
 155              		.cfi_offset 14, -4
 156 0004 0446     		mov	r4, r0
 455:stm/stm32l4xx/STM32L4xx_HAL_Driver/Src/stm32l4xx_hal_dac.c **** 
 157              		.loc 1 455 3 is_stmt 1 view .LVU32
 458:stm/stm32l4xx/STM32L4xx_HAL_Driver/Src/stm32l4xx_hal_dac.c **** 
 158              		.loc 1 458 3 view .LVU33
 458:stm/stm32l4xx/STM32L4xx_HAL_Driver/Src/stm32l4xx_hal_dac.c **** 
 159              		.loc 1 458 15 is_stmt 0 view .LVU34
 160 0006 0223     		movs	r3, #2
 161 0008 0371     		strb	r3, [r0, #4]
 469:stm/stm32l4xx/STM32L4xx_HAL_Driver/Src/stm32l4xx_hal_dac.c **** #endif /* USE_HAL_DAC_REGISTER_CALLBACKS */
 162              		.loc 1 469 3 is_stmt 1 view .LVU35
 163 000a FFF7FEFF 		bl	HAL_DAC_MspDeInit
 164              	.LVL9:
 473:stm/stm32l4xx/STM32L4xx_HAL_Driver/Src/stm32l4xx_hal_dac.c **** 
 165              		.loc 1 473 3 view .LVU36
 473:stm/stm32l4xx/STM32L4xx_HAL_Driver/Src/stm32l4xx_hal_dac.c **** 
 166              		.loc 1 473 19 is_stmt 0 view .LVU37
 167 000e 0020     		movs	r0, #0
 168 0010 2061     		str	r0, [r4, #16]
 476:stm/stm32l4xx/STM32L4xx_HAL_Driver/Src/stm32l4xx_hal_dac.c **** 
 169              		.loc 1 476 3 is_stmt 1 view .LVU38
 476:stm/stm32l4xx/STM32L4xx_HAL_Driver/Src/stm32l4xx_hal_dac.c **** 
 170              		.loc 1 476 15 is_stmt 0 view .LVU39
 171 0012 2071     		strb	r0, [r4, #4]
 479:stm/stm32l4xx/STM32L4xx_HAL_Driver/Src/stm32l4xx_hal_dac.c **** 
 172              		.loc 1 479 3 is_stmt 1 view .LVU40
 479:stm/stm32l4xx/STM32L4xx_HAL_Driver/Src/stm32l4xx_hal_dac.c **** 
 173              		.loc 1 479 3 view .LVU41
 174 0014 6071     		strb	r0, [r4, #5]
 479:stm/stm32l4xx/STM32L4xx_HAL_Driver/Src/stm32l4xx_hal_dac.c **** 
 175              		.loc 1 479 3 view .LVU42
 482:stm/stm32l4xx/STM32L4xx_HAL_Driver/Src/stm32l4xx_hal_dac.c **** }
 176              		.loc 1 482 3 view .LVU43
 483:stm/stm32l4xx/STM32L4xx_HAL_Driver/Src/stm32l4xx_hal_dac.c **** 
 177              		.loc 1 483 1 is_stmt 0 view .LVU44
 178 0016 10BD     		pop	{r4, pc}
 179              	.LVL10:
 180              	.L14:
 181              	.LCFI3:
 182              		.cfi_def_cfa_offset 0
 183              		.cfi_restore 4
 184              		.cfi_restore 14
 451:stm/stm32l4xx/STM32L4xx_HAL_Driver/Src/stm32l4xx_hal_dac.c ****   }
 185              		.loc 1 451 12 view .LVU45
 186 0018 0120     		movs	r0, #1
 187              	.LVL11:
 483:stm/stm32l4xx/STM32L4xx_HAL_Driver/Src/stm32l4xx_hal_dac.c **** 
 188              		.loc 1 483 1 view .LVU46
 189 001a 7047     		bx	lr
 190              		.cfi_endproc
 191              	.LFE289:
 193              		.section	.text.HAL_DAC_Start,"ax",%progbits
ARM GAS  /tmp/cc1emfwg.s 			page 14


 194              		.align	1
 195              		.global	HAL_DAC_Start
 196              		.syntax unified
 197              		.thumb
 198              		.thumb_func
 200              	HAL_DAC_Start:
 201              	.LVL12:
 202              	.LFB292:
 516:stm/stm32l4xx/STM32L4xx_HAL_Driver/Src/stm32l4xx_hal_dac.c **** 
 517:stm/stm32l4xx/STM32L4xx_HAL_Driver/Src/stm32l4xx_hal_dac.c **** /**
 518:stm/stm32l4xx/STM32L4xx_HAL_Driver/Src/stm32l4xx_hal_dac.c ****   * @}
 519:stm/stm32l4xx/STM32L4xx_HAL_Driver/Src/stm32l4xx_hal_dac.c ****   */
 520:stm/stm32l4xx/STM32L4xx_HAL_Driver/Src/stm32l4xx_hal_dac.c **** 
 521:stm/stm32l4xx/STM32L4xx_HAL_Driver/Src/stm32l4xx_hal_dac.c **** /** @defgroup DAC_Exported_Functions_Group2 IO operation functions
 522:stm/stm32l4xx/STM32L4xx_HAL_Driver/Src/stm32l4xx_hal_dac.c ****  *  @brief    IO operation functions
 523:stm/stm32l4xx/STM32L4xx_HAL_Driver/Src/stm32l4xx_hal_dac.c ****  *
 524:stm/stm32l4xx/STM32L4xx_HAL_Driver/Src/stm32l4xx_hal_dac.c **** @verbatim
 525:stm/stm32l4xx/STM32L4xx_HAL_Driver/Src/stm32l4xx_hal_dac.c ****   ==============================================================================
 526:stm/stm32l4xx/STM32L4xx_HAL_Driver/Src/stm32l4xx_hal_dac.c ****              ##### IO operation functions #####
 527:stm/stm32l4xx/STM32L4xx_HAL_Driver/Src/stm32l4xx_hal_dac.c ****   ==============================================================================
 528:stm/stm32l4xx/STM32L4xx_HAL_Driver/Src/stm32l4xx_hal_dac.c ****     [..]  This section provides functions allowing to:
 529:stm/stm32l4xx/STM32L4xx_HAL_Driver/Src/stm32l4xx_hal_dac.c ****       (+) Start conversion.
 530:stm/stm32l4xx/STM32L4xx_HAL_Driver/Src/stm32l4xx_hal_dac.c ****       (+) Stop conversion.
 531:stm/stm32l4xx/STM32L4xx_HAL_Driver/Src/stm32l4xx_hal_dac.c ****       (+) Start conversion and enable DMA transfer.
 532:stm/stm32l4xx/STM32L4xx_HAL_Driver/Src/stm32l4xx_hal_dac.c ****       (+) Stop conversion and disable DMA transfer.
 533:stm/stm32l4xx/STM32L4xx_HAL_Driver/Src/stm32l4xx_hal_dac.c ****       (+) Get result of conversion.
 534:stm/stm32l4xx/STM32L4xx_HAL_Driver/Src/stm32l4xx_hal_dac.c **** 
 535:stm/stm32l4xx/STM32L4xx_HAL_Driver/Src/stm32l4xx_hal_dac.c **** @endverbatim
 536:stm/stm32l4xx/STM32L4xx_HAL_Driver/Src/stm32l4xx_hal_dac.c ****   * @{
 537:stm/stm32l4xx/STM32L4xx_HAL_Driver/Src/stm32l4xx_hal_dac.c ****   */
 538:stm/stm32l4xx/STM32L4xx_HAL_Driver/Src/stm32l4xx_hal_dac.c **** 
 539:stm/stm32l4xx/STM32L4xx_HAL_Driver/Src/stm32l4xx_hal_dac.c **** /**
 540:stm/stm32l4xx/STM32L4xx_HAL_Driver/Src/stm32l4xx_hal_dac.c ****   * @brief  Enables DAC and starts conversion of channel.
 541:stm/stm32l4xx/STM32L4xx_HAL_Driver/Src/stm32l4xx_hal_dac.c ****   * @param  hdac pointer to a DAC_HandleTypeDef structure that contains
 542:stm/stm32l4xx/STM32L4xx_HAL_Driver/Src/stm32l4xx_hal_dac.c ****   *         the configuration information for the specified DAC.
 543:stm/stm32l4xx/STM32L4xx_HAL_Driver/Src/stm32l4xx_hal_dac.c ****   * @param  Channel The selected DAC channel.
 544:stm/stm32l4xx/STM32L4xx_HAL_Driver/Src/stm32l4xx_hal_dac.c ****   *          This parameter can be one of the following values:
 545:stm/stm32l4xx/STM32L4xx_HAL_Driver/Src/stm32l4xx_hal_dac.c ****   *            @arg DAC_CHANNEL_1: DAC Channel1 selected
 546:stm/stm32l4xx/STM32L4xx_HAL_Driver/Src/stm32l4xx_hal_dac.c ****   *            @arg DAC_CHANNEL_2: DAC Channel2 selected (when supported)
 547:stm/stm32l4xx/STM32L4xx_HAL_Driver/Src/stm32l4xx_hal_dac.c ****   * @retval HAL status
 548:stm/stm32l4xx/STM32L4xx_HAL_Driver/Src/stm32l4xx_hal_dac.c ****   */
 549:stm/stm32l4xx/STM32L4xx_HAL_Driver/Src/stm32l4xx_hal_dac.c **** HAL_StatusTypeDef HAL_DAC_Start(DAC_HandleTypeDef *hdac, uint32_t Channel)
 550:stm/stm32l4xx/STM32L4xx_HAL_Driver/Src/stm32l4xx_hal_dac.c **** {
 203              		.loc 1 550 1 is_stmt 1 view -0
 204              		.cfi_startproc
 205              		@ args = 0, pretend = 0, frame = 0
 206              		@ frame_needed = 0, uses_anonymous_args = 0
 207              		@ link register save eliminated.
 551:stm/stm32l4xx/STM32L4xx_HAL_Driver/Src/stm32l4xx_hal_dac.c ****   /* Check the parameters */
 552:stm/stm32l4xx/STM32L4xx_HAL_Driver/Src/stm32l4xx_hal_dac.c ****   assert_param(IS_DAC_CHANNEL(Channel));
 208              		.loc 1 552 3 view .LVU48
 553:stm/stm32l4xx/STM32L4xx_HAL_Driver/Src/stm32l4xx_hal_dac.c **** 
 554:stm/stm32l4xx/STM32L4xx_HAL_Driver/Src/stm32l4xx_hal_dac.c ****   /* Process locked */
 555:stm/stm32l4xx/STM32L4xx_HAL_Driver/Src/stm32l4xx_hal_dac.c ****   __HAL_LOCK(hdac);
 209              		.loc 1 555 3 view .LVU49
 210              		.loc 1 555 3 view .LVU50
 211 0000 4279     		ldrb	r2, [r0, #5]	@ zero_extendqisi2
ARM GAS  /tmp/cc1emfwg.s 			page 15


 212 0002 012A     		cmp	r2, #1
 213 0004 2CD0     		beq	.L23
 550:stm/stm32l4xx/STM32L4xx_HAL_Driver/Src/stm32l4xx_hal_dac.c ****   /* Check the parameters */
 214              		.loc 1 550 1 is_stmt 0 discriminator 2 view .LVU51
 215 0006 10B4     		push	{r4}
 216              	.LCFI4:
 217              		.cfi_def_cfa_offset 4
 218              		.cfi_offset 4, -4
 219 0008 0346     		mov	r3, r0
 220              		.loc 1 555 3 is_stmt 1 discriminator 2 view .LVU52
 221 000a 0122     		movs	r2, #1
 222 000c 4271     		strb	r2, [r0, #5]
 223              		.loc 1 555 3 discriminator 2 view .LVU53
 556:stm/stm32l4xx/STM32L4xx_HAL_Driver/Src/stm32l4xx_hal_dac.c **** 
 557:stm/stm32l4xx/STM32L4xx_HAL_Driver/Src/stm32l4xx_hal_dac.c ****   /* Change DAC state */
 558:stm/stm32l4xx/STM32L4xx_HAL_Driver/Src/stm32l4xx_hal_dac.c ****   hdac->State = HAL_DAC_STATE_BUSY;
 224              		.loc 1 558 3 discriminator 2 view .LVU54
 225              		.loc 1 558 15 is_stmt 0 discriminator 2 view .LVU55
 226 000e 0220     		movs	r0, #2
 227              	.LVL13:
 228              		.loc 1 558 15 discriminator 2 view .LVU56
 229 0010 1871     		strb	r0, [r3, #4]
 559:stm/stm32l4xx/STM32L4xx_HAL_Driver/Src/stm32l4xx_hal_dac.c **** 
 560:stm/stm32l4xx/STM32L4xx_HAL_Driver/Src/stm32l4xx_hal_dac.c ****   /* Enable the Peripheral */
 561:stm/stm32l4xx/STM32L4xx_HAL_Driver/Src/stm32l4xx_hal_dac.c ****   __HAL_DAC_ENABLE(hdac, Channel);
 230              		.loc 1 561 3 is_stmt 1 discriminator 2 view .LVU57
 231 0012 1C68     		ldr	r4, [r3]
 232 0014 2068     		ldr	r0, [r4]
 233 0016 01F0100C 		and	ip, r1, #16
 234 001a 02FA0CF2 		lsl	r2, r2, ip
 235 001e 0243     		orrs	r2, r2, r0
 236 0020 2260     		str	r2, [r4]
 562:stm/stm32l4xx/STM32L4xx_HAL_Driver/Src/stm32l4xx_hal_dac.c **** 
 563:stm/stm32l4xx/STM32L4xx_HAL_Driver/Src/stm32l4xx_hal_dac.c **** #if defined (STM32L4P5xx) || defined (STM32L4Q5xx) || defined (STM32L4R5xx) || defined (STM32L4R7xx
 564:stm/stm32l4xx/STM32L4xx_HAL_Driver/Src/stm32l4xx_hal_dac.c ****   if (Channel == DAC_CHANNEL_1)
 565:stm/stm32l4xx/STM32L4xx_HAL_Driver/Src/stm32l4xx_hal_dac.c ****   {
 566:stm/stm32l4xx/STM32L4xx_HAL_Driver/Src/stm32l4xx_hal_dac.c ****     /* Check if software trigger enabled */
 567:stm/stm32l4xx/STM32L4xx_HAL_Driver/Src/stm32l4xx_hal_dac.c ****     if ((hdac->Instance->CR & (DAC_CR_TEN1 | DAC_CR_TSEL1)) == DAC_TRIGGER_SOFTWARE)
 568:stm/stm32l4xx/STM32L4xx_HAL_Driver/Src/stm32l4xx_hal_dac.c ****     {
 569:stm/stm32l4xx/STM32L4xx_HAL_Driver/Src/stm32l4xx_hal_dac.c ****       /* Enable the selected DAC software conversion */
 570:stm/stm32l4xx/STM32L4xx_HAL_Driver/Src/stm32l4xx_hal_dac.c ****       SET_BIT(hdac->Instance->SWTRIGR, DAC_SWTRIGR_SWTRIG1);
 571:stm/stm32l4xx/STM32L4xx_HAL_Driver/Src/stm32l4xx_hal_dac.c ****     }
 572:stm/stm32l4xx/STM32L4xx_HAL_Driver/Src/stm32l4xx_hal_dac.c ****   }
 573:stm/stm32l4xx/STM32L4xx_HAL_Driver/Src/stm32l4xx_hal_dac.c ****   else
 574:stm/stm32l4xx/STM32L4xx_HAL_Driver/Src/stm32l4xx_hal_dac.c ****   {
 575:stm/stm32l4xx/STM32L4xx_HAL_Driver/Src/stm32l4xx_hal_dac.c ****     /* Check if software trigger enabled */
 576:stm/stm32l4xx/STM32L4xx_HAL_Driver/Src/stm32l4xx_hal_dac.c ****     if ((hdac->Instance->CR & (DAC_CR_TEN2 | DAC_CR_TSEL2)) == (DAC_TRIGGER_SOFTWARE << (Channel & 
 577:stm/stm32l4xx/STM32L4xx_HAL_Driver/Src/stm32l4xx_hal_dac.c ****     {
 578:stm/stm32l4xx/STM32L4xx_HAL_Driver/Src/stm32l4xx_hal_dac.c ****       /* Enable the selected DAC software conversion*/
 579:stm/stm32l4xx/STM32L4xx_HAL_Driver/Src/stm32l4xx_hal_dac.c ****       SET_BIT(hdac->Instance->SWTRIGR, DAC_SWTRIGR_SWTRIG2);
 580:stm/stm32l4xx/STM32L4xx_HAL_Driver/Src/stm32l4xx_hal_dac.c ****     }
 581:stm/stm32l4xx/STM32L4xx_HAL_Driver/Src/stm32l4xx_hal_dac.c ****   }
 582:stm/stm32l4xx/STM32L4xx_HAL_Driver/Src/stm32l4xx_hal_dac.c **** 
 583:stm/stm32l4xx/STM32L4xx_HAL_Driver/Src/stm32l4xx_hal_dac.c **** #endif /* STM32L4P5xx STM32L4Q5xx STM32L4R5xx STM32L4R7xx STM32L4R9xx STM32L4S5xx STM32L4S7xx STM32
 584:stm/stm32l4xx/STM32L4xx_HAL_Driver/Src/stm32l4xx_hal_dac.c **** 
 585:stm/stm32l4xx/STM32L4xx_HAL_Driver/Src/stm32l4xx_hal_dac.c **** #if defined (STM32L431xx) || defined (STM32L432xx) || defined (STM32L433xx) || defined (STM32L442xx
 586:stm/stm32l4xx/STM32L4xx_HAL_Driver/Src/stm32l4xx_hal_dac.c ****     defined (STM32L471xx) || defined (STM32L475xx) || defined (STM32L476xx) || defined (STM32L485xx
ARM GAS  /tmp/cc1emfwg.s 			page 16


 587:stm/stm32l4xx/STM32L4xx_HAL_Driver/Src/stm32l4xx_hal_dac.c ****   if(Channel == DAC_CHANNEL_1)
 237              		.loc 1 587 3 discriminator 2 view .LVU58
 238              		.loc 1 587 5 is_stmt 0 discriminator 2 view .LVU59
 239 0022 89B9     		cbnz	r1, .L21
 588:stm/stm32l4xx/STM32L4xx_HAL_Driver/Src/stm32l4xx_hal_dac.c ****   {
 589:stm/stm32l4xx/STM32L4xx_HAL_Driver/Src/stm32l4xx_hal_dac.c ****     /* Check if software trigger enabled */
 590:stm/stm32l4xx/STM32L4xx_HAL_Driver/Src/stm32l4xx_hal_dac.c ****     if ((hdac->Instance->CR & (DAC_CR_TEN1 | DAC_CR_TSEL1)) == DAC_CR_TEN1)
 240              		.loc 1 590 5 is_stmt 1 view .LVU60
 241              		.loc 1 590 14 is_stmt 0 view .LVU61
 242 0024 1968     		ldr	r1, [r3]
 243              	.LVL14:
 244              		.loc 1 590 24 view .LVU62
 245 0026 0A68     		ldr	r2, [r1]
 246              		.loc 1 590 29 view .LVU63
 247 0028 02F03C02 		and	r2, r2, #60
 248              		.loc 1 590 8 view .LVU64
 249 002c 042A     		cmp	r2, #4
 250 002e 06D0     		beq	.L28
 251              	.L22:
 591:stm/stm32l4xx/STM32L4xx_HAL_Driver/Src/stm32l4xx_hal_dac.c ****     {
 592:stm/stm32l4xx/STM32L4xx_HAL_Driver/Src/stm32l4xx_hal_dac.c ****       /* Enable the selected DAC software conversion */
 593:stm/stm32l4xx/STM32L4xx_HAL_Driver/Src/stm32l4xx_hal_dac.c ****       SET_BIT(hdac->Instance->SWTRIGR, DAC_SWTRIGR_SWTRIG1);
 594:stm/stm32l4xx/STM32L4xx_HAL_Driver/Src/stm32l4xx_hal_dac.c ****     }
 595:stm/stm32l4xx/STM32L4xx_HAL_Driver/Src/stm32l4xx_hal_dac.c ****   }
 596:stm/stm32l4xx/STM32L4xx_HAL_Driver/Src/stm32l4xx_hal_dac.c ****   else
 597:stm/stm32l4xx/STM32L4xx_HAL_Driver/Src/stm32l4xx_hal_dac.c ****   {
 598:stm/stm32l4xx/STM32L4xx_HAL_Driver/Src/stm32l4xx_hal_dac.c ****     /* Check if software trigger enabled */
 599:stm/stm32l4xx/STM32L4xx_HAL_Driver/Src/stm32l4xx_hal_dac.c ****     if ((hdac->Instance->CR & (DAC_CR_TEN2 | DAC_CR_TSEL2)) == DAC_CR_TEN2)
 600:stm/stm32l4xx/STM32L4xx_HAL_Driver/Src/stm32l4xx_hal_dac.c ****     {
 601:stm/stm32l4xx/STM32L4xx_HAL_Driver/Src/stm32l4xx_hal_dac.c ****       /* Enable the selected DAC software conversion*/
 602:stm/stm32l4xx/STM32L4xx_HAL_Driver/Src/stm32l4xx_hal_dac.c ****       SET_BIT(hdac->Instance->SWTRIGR, DAC_SWTRIGR_SWTRIG2);
 603:stm/stm32l4xx/STM32L4xx_HAL_Driver/Src/stm32l4xx_hal_dac.c ****     }
 604:stm/stm32l4xx/STM32L4xx_HAL_Driver/Src/stm32l4xx_hal_dac.c ****   }
 605:stm/stm32l4xx/STM32L4xx_HAL_Driver/Src/stm32l4xx_hal_dac.c **** #endif  /* STM32L431xx STM32L432xx STM32L433xx STM32L442xx STM32L443xx                         */
 606:stm/stm32l4xx/STM32L4xx_HAL_Driver/Src/stm32l4xx_hal_dac.c ****         /* STM32L471xx STM32L475xx STM32L476xx STM32L485xx STM32L486xx STM32L496xx STM32L4A6xx */
 607:stm/stm32l4xx/STM32L4xx_HAL_Driver/Src/stm32l4xx_hal_dac.c **** 
 608:stm/stm32l4xx/STM32L4xx_HAL_Driver/Src/stm32l4xx_hal_dac.c **** 
 609:stm/stm32l4xx/STM32L4xx_HAL_Driver/Src/stm32l4xx_hal_dac.c **** #if defined (STM32L451xx) || defined (STM32L452xx) || defined (STM32L462xx)
 610:stm/stm32l4xx/STM32L4xx_HAL_Driver/Src/stm32l4xx_hal_dac.c ****   /* Check if software trigger enabled */
 611:stm/stm32l4xx/STM32L4xx_HAL_Driver/Src/stm32l4xx_hal_dac.c ****   if((hdac->Instance->CR & (DAC_CR_TEN1 | DAC_CR_TSEL1)) == (DAC_CR_TEN1 | DAC_CR_TSEL1))
 612:stm/stm32l4xx/STM32L4xx_HAL_Driver/Src/stm32l4xx_hal_dac.c ****   {
 613:stm/stm32l4xx/STM32L4xx_HAL_Driver/Src/stm32l4xx_hal_dac.c ****     /* Enable the selected DAC software conversion */
 614:stm/stm32l4xx/STM32L4xx_HAL_Driver/Src/stm32l4xx_hal_dac.c ****     SET_BIT(hdac->Instance->SWTRIGR, DAC_SWTRIGR_SWTRIG1);
 615:stm/stm32l4xx/STM32L4xx_HAL_Driver/Src/stm32l4xx_hal_dac.c ****   }
 616:stm/stm32l4xx/STM32L4xx_HAL_Driver/Src/stm32l4xx_hal_dac.c **** #endif /* STM32L451xx STM32L452xx STM32L462xx */
 617:stm/stm32l4xx/STM32L4xx_HAL_Driver/Src/stm32l4xx_hal_dac.c ****   /* Change DAC state */
 618:stm/stm32l4xx/STM32L4xx_HAL_Driver/Src/stm32l4xx_hal_dac.c ****   hdac->State = HAL_DAC_STATE_READY;
 252              		.loc 1 618 3 is_stmt 1 view .LVU65
 253              		.loc 1 618 15 is_stmt 0 view .LVU66
 254 0030 0122     		movs	r2, #1
 255 0032 1A71     		strb	r2, [r3, #4]
 619:stm/stm32l4xx/STM32L4xx_HAL_Driver/Src/stm32l4xx_hal_dac.c **** 
 620:stm/stm32l4xx/STM32L4xx_HAL_Driver/Src/stm32l4xx_hal_dac.c ****   /* Process unlocked */
 621:stm/stm32l4xx/STM32L4xx_HAL_Driver/Src/stm32l4xx_hal_dac.c ****   __HAL_UNLOCK(hdac);
 256              		.loc 1 621 3 is_stmt 1 view .LVU67
 257              		.loc 1 621 3 view .LVU68
 258 0034 0020     		movs	r0, #0
ARM GAS  /tmp/cc1emfwg.s 			page 17


 259 0036 5871     		strb	r0, [r3, #5]
 260              		.loc 1 621 3 view .LVU69
 622:stm/stm32l4xx/STM32L4xx_HAL_Driver/Src/stm32l4xx_hal_dac.c **** 
 623:stm/stm32l4xx/STM32L4xx_HAL_Driver/Src/stm32l4xx_hal_dac.c ****   /* Return function status */
 624:stm/stm32l4xx/STM32L4xx_HAL_Driver/Src/stm32l4xx_hal_dac.c ****   return HAL_OK;
 261              		.loc 1 624 3 view .LVU70
 625:stm/stm32l4xx/STM32L4xx_HAL_Driver/Src/stm32l4xx_hal_dac.c **** }
 262              		.loc 1 625 1 is_stmt 0 view .LVU71
 263 0038 5DF8044B 		ldr	r4, [sp], #4
 264              	.LCFI5:
 265              		.cfi_remember_state
 266              		.cfi_restore 4
 267              		.cfi_def_cfa_offset 0
 268 003c 7047     		bx	lr
 269              	.L28:
 270              	.LCFI6:
 271              		.cfi_restore_state
 593:stm/stm32l4xx/STM32L4xx_HAL_Driver/Src/stm32l4xx_hal_dac.c ****     }
 272              		.loc 1 593 7 is_stmt 1 view .LVU72
 273 003e 4A68     		ldr	r2, [r1, #4]
 274 0040 42F00102 		orr	r2, r2, #1
 275 0044 4A60     		str	r2, [r1, #4]
 276 0046 F3E7     		b	.L22
 277              	.LVL15:
 278              	.L21:
 599:stm/stm32l4xx/STM32L4xx_HAL_Driver/Src/stm32l4xx_hal_dac.c ****     {
 279              		.loc 1 599 5 view .LVU73
 599:stm/stm32l4xx/STM32L4xx_HAL_Driver/Src/stm32l4xx_hal_dac.c ****     {
 280              		.loc 1 599 14 is_stmt 0 view .LVU74
 281 0048 1968     		ldr	r1, [r3]
 282              	.LVL16:
 599:stm/stm32l4xx/STM32L4xx_HAL_Driver/Src/stm32l4xx_hal_dac.c ****     {
 283              		.loc 1 599 24 view .LVU75
 284 004a 0A68     		ldr	r2, [r1]
 599:stm/stm32l4xx/STM32L4xx_HAL_Driver/Src/stm32l4xx_hal_dac.c ****     {
 285              		.loc 1 599 29 view .LVU76
 286 004c 02F47012 		and	r2, r2, #3932160
 599:stm/stm32l4xx/STM32L4xx_HAL_Driver/Src/stm32l4xx_hal_dac.c ****     {
 287              		.loc 1 599 8 view .LVU77
 288 0050 B2F5802F 		cmp	r2, #262144
 289 0054 ECD1     		bne	.L22
 602:stm/stm32l4xx/STM32L4xx_HAL_Driver/Src/stm32l4xx_hal_dac.c ****     }
 290              		.loc 1 602 7 is_stmt 1 view .LVU78
 291 0056 4A68     		ldr	r2, [r1, #4]
 292 0058 42F00202 		orr	r2, r2, #2
 293 005c 4A60     		str	r2, [r1, #4]
 294 005e E7E7     		b	.L22
 295              	.LVL17:
 296              	.L23:
 297              	.LCFI7:
 298              		.cfi_def_cfa_offset 0
 299              		.cfi_restore 4
 555:stm/stm32l4xx/STM32L4xx_HAL_Driver/Src/stm32l4xx_hal_dac.c **** 
 300              		.loc 1 555 3 is_stmt 0 view .LVU79
 301 0060 0220     		movs	r0, #2
 302              	.LVL18:
 303              		.loc 1 625 1 view .LVU80
ARM GAS  /tmp/cc1emfwg.s 			page 18


 304 0062 7047     		bx	lr
 305              		.cfi_endproc
 306              	.LFE292:
 308              		.section	.text.HAL_DAC_Stop,"ax",%progbits
 309              		.align	1
 310              		.global	HAL_DAC_Stop
 311              		.syntax unified
 312              		.thumb
 313              		.thumb_func
 315              	HAL_DAC_Stop:
 316              	.LVL19:
 317              	.LFB293:
 626:stm/stm32l4xx/STM32L4xx_HAL_Driver/Src/stm32l4xx_hal_dac.c **** 
 627:stm/stm32l4xx/STM32L4xx_HAL_Driver/Src/stm32l4xx_hal_dac.c **** /**
 628:stm/stm32l4xx/STM32L4xx_HAL_Driver/Src/stm32l4xx_hal_dac.c ****   * @brief  Disables DAC and stop conversion of channel.
 629:stm/stm32l4xx/STM32L4xx_HAL_Driver/Src/stm32l4xx_hal_dac.c ****   * @param  hdac pointer to a DAC_HandleTypeDef structure that contains
 630:stm/stm32l4xx/STM32L4xx_HAL_Driver/Src/stm32l4xx_hal_dac.c ****   *         the configuration information for the specified DAC.
 631:stm/stm32l4xx/STM32L4xx_HAL_Driver/Src/stm32l4xx_hal_dac.c ****   * @param  Channel The selected DAC channel.
 632:stm/stm32l4xx/STM32L4xx_HAL_Driver/Src/stm32l4xx_hal_dac.c ****   *          This parameter can be one of the following values:
 633:stm/stm32l4xx/STM32L4xx_HAL_Driver/Src/stm32l4xx_hal_dac.c ****   *            @arg DAC_CHANNEL_1: DAC Channel1 selected
 634:stm/stm32l4xx/STM32L4xx_HAL_Driver/Src/stm32l4xx_hal_dac.c ****   *            @arg DAC_CHANNEL_2: DAC Channel2 selected
 635:stm/stm32l4xx/STM32L4xx_HAL_Driver/Src/stm32l4xx_hal_dac.c ****   * @retval HAL status
 636:stm/stm32l4xx/STM32L4xx_HAL_Driver/Src/stm32l4xx_hal_dac.c ****   */
 637:stm/stm32l4xx/STM32L4xx_HAL_Driver/Src/stm32l4xx_hal_dac.c **** HAL_StatusTypeDef HAL_DAC_Stop(DAC_HandleTypeDef *hdac, uint32_t Channel)
 638:stm/stm32l4xx/STM32L4xx_HAL_Driver/Src/stm32l4xx_hal_dac.c **** {
 318              		.loc 1 638 1 is_stmt 1 view -0
 319              		.cfi_startproc
 320              		@ args = 0, pretend = 0, frame = 0
 321              		@ frame_needed = 0, uses_anonymous_args = 0
 322              		@ link register save eliminated.
 323              		.loc 1 638 1 is_stmt 0 view .LVU82
 324 0000 10B4     		push	{r4}
 325              	.LCFI8:
 326              		.cfi_def_cfa_offset 4
 327              		.cfi_offset 4, -4
 639:stm/stm32l4xx/STM32L4xx_HAL_Driver/Src/stm32l4xx_hal_dac.c ****   /* Check the parameters */
 640:stm/stm32l4xx/STM32L4xx_HAL_Driver/Src/stm32l4xx_hal_dac.c ****   assert_param(IS_DAC_CHANNEL(Channel));
 328              		.loc 1 640 3 is_stmt 1 view .LVU83
 641:stm/stm32l4xx/STM32L4xx_HAL_Driver/Src/stm32l4xx_hal_dac.c **** 
 642:stm/stm32l4xx/STM32L4xx_HAL_Driver/Src/stm32l4xx_hal_dac.c ****   /* Disable the Peripheral */
 643:stm/stm32l4xx/STM32L4xx_HAL_Driver/Src/stm32l4xx_hal_dac.c ****   __HAL_DAC_DISABLE(hdac, Channel);
 329              		.loc 1 643 3 view .LVU84
 330 0002 0468     		ldr	r4, [r0]
 331 0004 2368     		ldr	r3, [r4]
 332 0006 01F01001 		and	r1, r1, #16
 333              	.LVL20:
 334              		.loc 1 643 3 is_stmt 0 view .LVU85
 335 000a 0122     		movs	r2, #1
 336 000c 02FA01F1 		lsl	r1, r2, r1
 337 0010 23EA0103 		bic	r3, r3, r1
 338 0014 2360     		str	r3, [r4]
 644:stm/stm32l4xx/STM32L4xx_HAL_Driver/Src/stm32l4xx_hal_dac.c **** 
 645:stm/stm32l4xx/STM32L4xx_HAL_Driver/Src/stm32l4xx_hal_dac.c ****   /* Change DAC state */
 646:stm/stm32l4xx/STM32L4xx_HAL_Driver/Src/stm32l4xx_hal_dac.c ****   hdac->State = HAL_DAC_STATE_READY;
 339              		.loc 1 646 3 is_stmt 1 view .LVU86
 340              		.loc 1 646 15 is_stmt 0 view .LVU87
 341 0016 0271     		strb	r2, [r0, #4]
ARM GAS  /tmp/cc1emfwg.s 			page 19


 647:stm/stm32l4xx/STM32L4xx_HAL_Driver/Src/stm32l4xx_hal_dac.c **** 
 648:stm/stm32l4xx/STM32L4xx_HAL_Driver/Src/stm32l4xx_hal_dac.c ****   /* Return function status */
 649:stm/stm32l4xx/STM32L4xx_HAL_Driver/Src/stm32l4xx_hal_dac.c ****   return HAL_OK;
 342              		.loc 1 649 3 is_stmt 1 view .LVU88
 650:stm/stm32l4xx/STM32L4xx_HAL_Driver/Src/stm32l4xx_hal_dac.c **** }
 343              		.loc 1 650 1 is_stmt 0 view .LVU89
 344 0018 0020     		movs	r0, #0
 345              	.LVL21:
 346              		.loc 1 650 1 view .LVU90
 347 001a 5DF8044B 		ldr	r4, [sp], #4
 348              	.LCFI9:
 349              		.cfi_restore 4
 350              		.cfi_def_cfa_offset 0
 351 001e 7047     		bx	lr
 352              		.cfi_endproc
 353              	.LFE293:
 355              		.section	.text.HAL_DAC_Start_DMA,"ax",%progbits
 356              		.align	1
 357              		.global	HAL_DAC_Start_DMA
 358              		.syntax unified
 359              		.thumb
 360              		.thumb_func
 362              	HAL_DAC_Start_DMA:
 363              	.LVL22:
 364              	.LFB294:
 651:stm/stm32l4xx/STM32L4xx_HAL_Driver/Src/stm32l4xx_hal_dac.c **** 
 652:stm/stm32l4xx/STM32L4xx_HAL_Driver/Src/stm32l4xx_hal_dac.c **** #if defined (STM32L451xx) || defined (STM32L452xx) || defined (STM32L462xx)
 653:stm/stm32l4xx/STM32L4xx_HAL_Driver/Src/stm32l4xx_hal_dac.c **** /**
 654:stm/stm32l4xx/STM32L4xx_HAL_Driver/Src/stm32l4xx_hal_dac.c ****   * @brief  Enables DAC and starts conversion of channel.
 655:stm/stm32l4xx/STM32L4xx_HAL_Driver/Src/stm32l4xx_hal_dac.c ****   * @param  hdac pointer to a DAC_HandleTypeDef structure that contains
 656:stm/stm32l4xx/STM32L4xx_HAL_Driver/Src/stm32l4xx_hal_dac.c ****   *         the configuration information for the specified DAC.
 657:stm/stm32l4xx/STM32L4xx_HAL_Driver/Src/stm32l4xx_hal_dac.c ****   * @param  Channel The selected DAC channel.
 658:stm/stm32l4xx/STM32L4xx_HAL_Driver/Src/stm32l4xx_hal_dac.c ****   *          This parameter can be one of the following values:
 659:stm/stm32l4xx/STM32L4xx_HAL_Driver/Src/stm32l4xx_hal_dac.c ****   *            @arg DAC_CHANNEL_1: DAC Channel1 selected
 660:stm/stm32l4xx/STM32L4xx_HAL_Driver/Src/stm32l4xx_hal_dac.c ****   * @param  pData The destination peripheral Buffer address.
 661:stm/stm32l4xx/STM32L4xx_HAL_Driver/Src/stm32l4xx_hal_dac.c ****   * @param  Length The length of data to be transferred from memory to DAC peripheral
 662:stm/stm32l4xx/STM32L4xx_HAL_Driver/Src/stm32l4xx_hal_dac.c ****   * @param  Alignment Specifies the data alignment for DAC channel.
 663:stm/stm32l4xx/STM32L4xx_HAL_Driver/Src/stm32l4xx_hal_dac.c ****   *          This parameter can be one of the following values:
 664:stm/stm32l4xx/STM32L4xx_HAL_Driver/Src/stm32l4xx_hal_dac.c ****   *            @arg DAC_ALIGN_8B_R: 8bit right data alignment selected
 665:stm/stm32l4xx/STM32L4xx_HAL_Driver/Src/stm32l4xx_hal_dac.c ****   *            @arg DAC_ALIGN_12B_L: 12bit left data alignment selected
 666:stm/stm32l4xx/STM32L4xx_HAL_Driver/Src/stm32l4xx_hal_dac.c ****   *            @arg DAC_ALIGN_12B_R: 12bit right data alignment selected
 667:stm/stm32l4xx/STM32L4xx_HAL_Driver/Src/stm32l4xx_hal_dac.c ****   * @retval HAL status
 668:stm/stm32l4xx/STM32L4xx_HAL_Driver/Src/stm32l4xx_hal_dac.c ****   */
 669:stm/stm32l4xx/STM32L4xx_HAL_Driver/Src/stm32l4xx_hal_dac.c **** HAL_StatusTypeDef HAL_DAC_Start_DMA(DAC_HandleTypeDef *hdac, uint32_t Channel, uint32_t *pData, uin
 670:stm/stm32l4xx/STM32L4xx_HAL_Driver/Src/stm32l4xx_hal_dac.c ****                                     uint32_t Alignment)
 671:stm/stm32l4xx/STM32L4xx_HAL_Driver/Src/stm32l4xx_hal_dac.c **** {
 672:stm/stm32l4xx/STM32L4xx_HAL_Driver/Src/stm32l4xx_hal_dac.c ****   HAL_StatusTypeDef status;
 673:stm/stm32l4xx/STM32L4xx_HAL_Driver/Src/stm32l4xx_hal_dac.c ****   uint32_t tmpreg = 0U;
 674:stm/stm32l4xx/STM32L4xx_HAL_Driver/Src/stm32l4xx_hal_dac.c **** 
 675:stm/stm32l4xx/STM32L4xx_HAL_Driver/Src/stm32l4xx_hal_dac.c ****   /* Check the parameters */
 676:stm/stm32l4xx/STM32L4xx_HAL_Driver/Src/stm32l4xx_hal_dac.c ****   assert_param(IS_DAC_CHANNEL(Channel));
 677:stm/stm32l4xx/STM32L4xx_HAL_Driver/Src/stm32l4xx_hal_dac.c ****   assert_param(IS_DAC_ALIGN(Alignment));
 678:stm/stm32l4xx/STM32L4xx_HAL_Driver/Src/stm32l4xx_hal_dac.c **** 
 679:stm/stm32l4xx/STM32L4xx_HAL_Driver/Src/stm32l4xx_hal_dac.c ****   /* Process locked */
 680:stm/stm32l4xx/STM32L4xx_HAL_Driver/Src/stm32l4xx_hal_dac.c ****   __HAL_LOCK(hdac);
 681:stm/stm32l4xx/STM32L4xx_HAL_Driver/Src/stm32l4xx_hal_dac.c **** 
 682:stm/stm32l4xx/STM32L4xx_HAL_Driver/Src/stm32l4xx_hal_dac.c ****   /* Change DAC state */
ARM GAS  /tmp/cc1emfwg.s 			page 20


 683:stm/stm32l4xx/STM32L4xx_HAL_Driver/Src/stm32l4xx_hal_dac.c ****   hdac->State = HAL_DAC_STATE_BUSY;
 684:stm/stm32l4xx/STM32L4xx_HAL_Driver/Src/stm32l4xx_hal_dac.c **** 
 685:stm/stm32l4xx/STM32L4xx_HAL_Driver/Src/stm32l4xx_hal_dac.c ****   /* Set the DMA transfer complete callback for channel1 */
 686:stm/stm32l4xx/STM32L4xx_HAL_Driver/Src/stm32l4xx_hal_dac.c ****   hdac->DMA_Handle1->XferCpltCallback = DAC_DMAConvCpltCh1;
 687:stm/stm32l4xx/STM32L4xx_HAL_Driver/Src/stm32l4xx_hal_dac.c **** 
 688:stm/stm32l4xx/STM32L4xx_HAL_Driver/Src/stm32l4xx_hal_dac.c ****   /* Set the DMA half transfer complete callback for channel1 */
 689:stm/stm32l4xx/STM32L4xx_HAL_Driver/Src/stm32l4xx_hal_dac.c ****   hdac->DMA_Handle1->XferHalfCpltCallback = DAC_DMAHalfConvCpltCh1;
 690:stm/stm32l4xx/STM32L4xx_HAL_Driver/Src/stm32l4xx_hal_dac.c **** 
 691:stm/stm32l4xx/STM32L4xx_HAL_Driver/Src/stm32l4xx_hal_dac.c ****   /* Set the DMA error callback for channel1 */
 692:stm/stm32l4xx/STM32L4xx_HAL_Driver/Src/stm32l4xx_hal_dac.c ****   hdac->DMA_Handle1->XferErrorCallback = DAC_DMAErrorCh1;
 693:stm/stm32l4xx/STM32L4xx_HAL_Driver/Src/stm32l4xx_hal_dac.c **** 
 694:stm/stm32l4xx/STM32L4xx_HAL_Driver/Src/stm32l4xx_hal_dac.c ****   /* Enable the selected DAC channel1 DMA request */
 695:stm/stm32l4xx/STM32L4xx_HAL_Driver/Src/stm32l4xx_hal_dac.c ****   SET_BIT(hdac->Instance->CR, DAC_CR_DMAEN1);
 696:stm/stm32l4xx/STM32L4xx_HAL_Driver/Src/stm32l4xx_hal_dac.c **** 
 697:stm/stm32l4xx/STM32L4xx_HAL_Driver/Src/stm32l4xx_hal_dac.c ****   /* Case of use of channel 1 */
 698:stm/stm32l4xx/STM32L4xx_HAL_Driver/Src/stm32l4xx_hal_dac.c ****   switch (Alignment)
 699:stm/stm32l4xx/STM32L4xx_HAL_Driver/Src/stm32l4xx_hal_dac.c ****   {
 700:stm/stm32l4xx/STM32L4xx_HAL_Driver/Src/stm32l4xx_hal_dac.c ****     case DAC_ALIGN_12B_R:
 701:stm/stm32l4xx/STM32L4xx_HAL_Driver/Src/stm32l4xx_hal_dac.c ****       /* Get DHR12R1 address */
 702:stm/stm32l4xx/STM32L4xx_HAL_Driver/Src/stm32l4xx_hal_dac.c ****       tmpreg = (uint32_t)&hdac->Instance->DHR12R1;
 703:stm/stm32l4xx/STM32L4xx_HAL_Driver/Src/stm32l4xx_hal_dac.c ****       break;
 704:stm/stm32l4xx/STM32L4xx_HAL_Driver/Src/stm32l4xx_hal_dac.c ****     case DAC_ALIGN_12B_L:
 705:stm/stm32l4xx/STM32L4xx_HAL_Driver/Src/stm32l4xx_hal_dac.c ****       /* Get DHR12L1 address */
 706:stm/stm32l4xx/STM32L4xx_HAL_Driver/Src/stm32l4xx_hal_dac.c ****       tmpreg = (uint32_t)&hdac->Instance->DHR12L1;
 707:stm/stm32l4xx/STM32L4xx_HAL_Driver/Src/stm32l4xx_hal_dac.c ****       break;
 708:stm/stm32l4xx/STM32L4xx_HAL_Driver/Src/stm32l4xx_hal_dac.c ****     case DAC_ALIGN_8B_R:
 709:stm/stm32l4xx/STM32L4xx_HAL_Driver/Src/stm32l4xx_hal_dac.c ****       /* Get DHR8R1 address */
 710:stm/stm32l4xx/STM32L4xx_HAL_Driver/Src/stm32l4xx_hal_dac.c ****       tmpreg = (uint32_t)&hdac->Instance->DHR8R1;
 711:stm/stm32l4xx/STM32L4xx_HAL_Driver/Src/stm32l4xx_hal_dac.c ****       break;
 712:stm/stm32l4xx/STM32L4xx_HAL_Driver/Src/stm32l4xx_hal_dac.c ****     default:
 713:stm/stm32l4xx/STM32L4xx_HAL_Driver/Src/stm32l4xx_hal_dac.c ****       break;
 714:stm/stm32l4xx/STM32L4xx_HAL_Driver/Src/stm32l4xx_hal_dac.c ****   }
 715:stm/stm32l4xx/STM32L4xx_HAL_Driver/Src/stm32l4xx_hal_dac.c **** 
 716:stm/stm32l4xx/STM32L4xx_HAL_Driver/Src/stm32l4xx_hal_dac.c ****   /* Enable the DMA channel */
 717:stm/stm32l4xx/STM32L4xx_HAL_Driver/Src/stm32l4xx_hal_dac.c ****   /* Enable the DAC DMA underrun interrupt */
 718:stm/stm32l4xx/STM32L4xx_HAL_Driver/Src/stm32l4xx_hal_dac.c ****   __HAL_DAC_ENABLE_IT(hdac, DAC_IT_DMAUDR1);
 719:stm/stm32l4xx/STM32L4xx_HAL_Driver/Src/stm32l4xx_hal_dac.c **** 
 720:stm/stm32l4xx/STM32L4xx_HAL_Driver/Src/stm32l4xx_hal_dac.c ****   /* Enable the DMA channel */
 721:stm/stm32l4xx/STM32L4xx_HAL_Driver/Src/stm32l4xx_hal_dac.c ****   status = HAL_DMA_Start_IT(hdac->DMA_Handle1, (uint32_t)pData, tmpreg, Length);
 722:stm/stm32l4xx/STM32L4xx_HAL_Driver/Src/stm32l4xx_hal_dac.c **** 
 723:stm/stm32l4xx/STM32L4xx_HAL_Driver/Src/stm32l4xx_hal_dac.c ****   /* Process Unlocked */
 724:stm/stm32l4xx/STM32L4xx_HAL_Driver/Src/stm32l4xx_hal_dac.c ****   __HAL_UNLOCK(hdac);
 725:stm/stm32l4xx/STM32L4xx_HAL_Driver/Src/stm32l4xx_hal_dac.c **** 
 726:stm/stm32l4xx/STM32L4xx_HAL_Driver/Src/stm32l4xx_hal_dac.c ****   if (status == HAL_OK)
 727:stm/stm32l4xx/STM32L4xx_HAL_Driver/Src/stm32l4xx_hal_dac.c ****   {
 728:stm/stm32l4xx/STM32L4xx_HAL_Driver/Src/stm32l4xx_hal_dac.c ****     /* Enable the Peripheral */
 729:stm/stm32l4xx/STM32L4xx_HAL_Driver/Src/stm32l4xx_hal_dac.c ****     __HAL_DAC_ENABLE(hdac, Channel);
 730:stm/stm32l4xx/STM32L4xx_HAL_Driver/Src/stm32l4xx_hal_dac.c ****   }
 731:stm/stm32l4xx/STM32L4xx_HAL_Driver/Src/stm32l4xx_hal_dac.c ****   else
 732:stm/stm32l4xx/STM32L4xx_HAL_Driver/Src/stm32l4xx_hal_dac.c ****   {
 733:stm/stm32l4xx/STM32L4xx_HAL_Driver/Src/stm32l4xx_hal_dac.c ****     hdac->ErrorCode |= HAL_DAC_ERROR_DMA;
 734:stm/stm32l4xx/STM32L4xx_HAL_Driver/Src/stm32l4xx_hal_dac.c ****   }
 735:stm/stm32l4xx/STM32L4xx_HAL_Driver/Src/stm32l4xx_hal_dac.c **** 
 736:stm/stm32l4xx/STM32L4xx_HAL_Driver/Src/stm32l4xx_hal_dac.c ****   /* Return function status */
 737:stm/stm32l4xx/STM32L4xx_HAL_Driver/Src/stm32l4xx_hal_dac.c ****   return status;
 738:stm/stm32l4xx/STM32L4xx_HAL_Driver/Src/stm32l4xx_hal_dac.c **** }
 739:stm/stm32l4xx/STM32L4xx_HAL_Driver/Src/stm32l4xx_hal_dac.c **** #endif /* STM32L451xx STM32L452xx STM32L462xx */
ARM GAS  /tmp/cc1emfwg.s 			page 21


 740:stm/stm32l4xx/STM32L4xx_HAL_Driver/Src/stm32l4xx_hal_dac.c **** 
 741:stm/stm32l4xx/STM32L4xx_HAL_Driver/Src/stm32l4xx_hal_dac.c **** #if defined (STM32L431xx) || defined (STM32L432xx) || defined (STM32L433xx) || defined (STM32L442xx
 742:stm/stm32l4xx/STM32L4xx_HAL_Driver/Src/stm32l4xx_hal_dac.c ****     defined (STM32L471xx) || defined (STM32L475xx) || defined (STM32L476xx) || defined (STM32L485xx
 743:stm/stm32l4xx/STM32L4xx_HAL_Driver/Src/stm32l4xx_hal_dac.c ****     defined (STM32L4P5xx) || defined (STM32L4Q5xx) || \
 744:stm/stm32l4xx/STM32L4xx_HAL_Driver/Src/stm32l4xx_hal_dac.c ****     defined (STM32L4R5xx) || defined (STM32L4R7xx) || defined (STM32L4R9xx) || defined (STM32L4S5xx
 745:stm/stm32l4xx/STM32L4xx_HAL_Driver/Src/stm32l4xx_hal_dac.c **** 
 746:stm/stm32l4xx/STM32L4xx_HAL_Driver/Src/stm32l4xx_hal_dac.c **** /**
 747:stm/stm32l4xx/STM32L4xx_HAL_Driver/Src/stm32l4xx_hal_dac.c ****   * @brief  Enables DAC and starts conversion of channel.
 748:stm/stm32l4xx/STM32L4xx_HAL_Driver/Src/stm32l4xx_hal_dac.c ****   * @param  hdac pointer to a DAC_HandleTypeDef structure that contains
 749:stm/stm32l4xx/STM32L4xx_HAL_Driver/Src/stm32l4xx_hal_dac.c ****   *         the configuration information for the specified DAC.
 750:stm/stm32l4xx/STM32L4xx_HAL_Driver/Src/stm32l4xx_hal_dac.c ****   * @param  Channel The selected DAC channel.
 751:stm/stm32l4xx/STM32L4xx_HAL_Driver/Src/stm32l4xx_hal_dac.c ****   *          This parameter can be one of the following values:
 752:stm/stm32l4xx/STM32L4xx_HAL_Driver/Src/stm32l4xx_hal_dac.c ****   *            @arg DAC_CHANNEL_1: DAC Channel1 selected
 753:stm/stm32l4xx/STM32L4xx_HAL_Driver/Src/stm32l4xx_hal_dac.c ****   *            @arg DAC_CHANNEL_2: DAC Channel2 selected
 754:stm/stm32l4xx/STM32L4xx_HAL_Driver/Src/stm32l4xx_hal_dac.c ****   * @param  pData The destination peripheral Buffer address.
 755:stm/stm32l4xx/STM32L4xx_HAL_Driver/Src/stm32l4xx_hal_dac.c ****   * @param  Length The length of data to be transferred from memory to DAC peripheral
 756:stm/stm32l4xx/STM32L4xx_HAL_Driver/Src/stm32l4xx_hal_dac.c ****   * @param  Alignment Specifies the data alignment for DAC channel.
 757:stm/stm32l4xx/STM32L4xx_HAL_Driver/Src/stm32l4xx_hal_dac.c ****   *          This parameter can be one of the following values:
 758:stm/stm32l4xx/STM32L4xx_HAL_Driver/Src/stm32l4xx_hal_dac.c ****   *            @arg DAC_ALIGN_8B_R: 8bit right data alignment selected
 759:stm/stm32l4xx/STM32L4xx_HAL_Driver/Src/stm32l4xx_hal_dac.c ****   *            @arg DAC_ALIGN_12B_L: 12bit left data alignment selected
 760:stm/stm32l4xx/STM32L4xx_HAL_Driver/Src/stm32l4xx_hal_dac.c ****   *            @arg DAC_ALIGN_12B_R: 12bit right data alignment selected
 761:stm/stm32l4xx/STM32L4xx_HAL_Driver/Src/stm32l4xx_hal_dac.c ****   * @retval HAL status
 762:stm/stm32l4xx/STM32L4xx_HAL_Driver/Src/stm32l4xx_hal_dac.c ****   */
 763:stm/stm32l4xx/STM32L4xx_HAL_Driver/Src/stm32l4xx_hal_dac.c **** HAL_StatusTypeDef HAL_DAC_Start_DMA(DAC_HandleTypeDef *hdac, uint32_t Channel, uint32_t *pData, uin
 764:stm/stm32l4xx/STM32L4xx_HAL_Driver/Src/stm32l4xx_hal_dac.c ****                                     uint32_t Alignment)
 765:stm/stm32l4xx/STM32L4xx_HAL_Driver/Src/stm32l4xx_hal_dac.c **** {
 365              		.loc 1 765 1 is_stmt 1 view -0
 366              		.cfi_startproc
 367              		@ args = 4, pretend = 0, frame = 0
 368              		@ frame_needed = 0, uses_anonymous_args = 0
 369              		.loc 1 765 1 is_stmt 0 view .LVU92
 370 0000 70B5     		push	{r4, r5, r6, lr}
 371              	.LCFI10:
 372              		.cfi_def_cfa_offset 16
 373              		.cfi_offset 4, -16
 374              		.cfi_offset 5, -12
 375              		.cfi_offset 6, -8
 376              		.cfi_offset 14, -4
 377 0002 0446     		mov	r4, r0
 378 0004 0D46     		mov	r5, r1
 379 0006 1146     		mov	r1, r2
 380              	.LVL23:
 381              		.loc 1 765 1 view .LVU93
 382 0008 049A     		ldr	r2, [sp, #16]
 383              	.LVL24:
 766:stm/stm32l4xx/STM32L4xx_HAL_Driver/Src/stm32l4xx_hal_dac.c ****   HAL_StatusTypeDef status;
 384              		.loc 1 766 3 is_stmt 1 view .LVU94
 767:stm/stm32l4xx/STM32L4xx_HAL_Driver/Src/stm32l4xx_hal_dac.c ****   uint32_t tmpreg = 0U;
 385              		.loc 1 767 3 view .LVU95
 768:stm/stm32l4xx/STM32L4xx_HAL_Driver/Src/stm32l4xx_hal_dac.c **** 
 769:stm/stm32l4xx/STM32L4xx_HAL_Driver/Src/stm32l4xx_hal_dac.c ****   /* Check the parameters */
 770:stm/stm32l4xx/STM32L4xx_HAL_Driver/Src/stm32l4xx_hal_dac.c ****   assert_param(IS_DAC_CHANNEL(Channel));
 386              		.loc 1 770 3 view .LVU96
 771:stm/stm32l4xx/STM32L4xx_HAL_Driver/Src/stm32l4xx_hal_dac.c ****   assert_param(IS_DAC_ALIGN(Alignment));
 387              		.loc 1 771 3 view .LVU97
 772:stm/stm32l4xx/STM32L4xx_HAL_Driver/Src/stm32l4xx_hal_dac.c **** 
 773:stm/stm32l4xx/STM32L4xx_HAL_Driver/Src/stm32l4xx_hal_dac.c ****   /* Process locked */
ARM GAS  /tmp/cc1emfwg.s 			page 22


 774:stm/stm32l4xx/STM32L4xx_HAL_Driver/Src/stm32l4xx_hal_dac.c ****   __HAL_LOCK(hdac);
 388              		.loc 1 774 3 view .LVU98
 389              		.loc 1 774 3 view .LVU99
 390 000a 4079     		ldrb	r0, [r0, #5]	@ zero_extendqisi2
 391              	.LVL25:
 392              		.loc 1 774 3 is_stmt 0 view .LVU100
 393 000c 0128     		cmp	r0, #1
 394 000e 65D0     		beq	.L42
 395              		.loc 1 774 3 is_stmt 1 discriminator 2 view .LVU101
 396 0010 0120     		movs	r0, #1
 397 0012 6071     		strb	r0, [r4, #5]
 398              		.loc 1 774 3 discriminator 2 view .LVU102
 775:stm/stm32l4xx/STM32L4xx_HAL_Driver/Src/stm32l4xx_hal_dac.c **** 
 776:stm/stm32l4xx/STM32L4xx_HAL_Driver/Src/stm32l4xx_hal_dac.c ****   /* Change DAC state */
 777:stm/stm32l4xx/STM32L4xx_HAL_Driver/Src/stm32l4xx_hal_dac.c ****   hdac->State = HAL_DAC_STATE_BUSY;
 399              		.loc 1 777 3 discriminator 2 view .LVU103
 400              		.loc 1 777 15 is_stmt 0 discriminator 2 view .LVU104
 401 0014 0220     		movs	r0, #2
 402 0016 2071     		strb	r0, [r4, #4]
 778:stm/stm32l4xx/STM32L4xx_HAL_Driver/Src/stm32l4xx_hal_dac.c **** 
 779:stm/stm32l4xx/STM32L4xx_HAL_Driver/Src/stm32l4xx_hal_dac.c ****   if (Channel == DAC_CHANNEL_1)
 403              		.loc 1 779 3 is_stmt 1 discriminator 2 view .LVU105
 404              		.loc 1 779 6 is_stmt 0 discriminator 2 view .LVU106
 405 0018 002D     		cmp	r5, #0
 406 001a 33D1     		bne	.L33
 780:stm/stm32l4xx/STM32L4xx_HAL_Driver/Src/stm32l4xx_hal_dac.c ****   {
 781:stm/stm32l4xx/STM32L4xx_HAL_Driver/Src/stm32l4xx_hal_dac.c ****     /* Set the DMA transfer complete callback for channel1 */
 782:stm/stm32l4xx/STM32L4xx_HAL_Driver/Src/stm32l4xx_hal_dac.c ****     hdac->DMA_Handle1->XferCpltCallback = DAC_DMAConvCpltCh1;
 407              		.loc 1 782 5 is_stmt 1 view .LVU107
 408              		.loc 1 782 9 is_stmt 0 view .LVU108
 409 001c A068     		ldr	r0, [r4, #8]
 410              		.loc 1 782 41 view .LVU109
 411 001e 304E     		ldr	r6, .L48
 412 0020 C662     		str	r6, [r0, #44]
 783:stm/stm32l4xx/STM32L4xx_HAL_Driver/Src/stm32l4xx_hal_dac.c **** 
 784:stm/stm32l4xx/STM32L4xx_HAL_Driver/Src/stm32l4xx_hal_dac.c ****     /* Set the DMA half transfer complete callback for channel1 */
 785:stm/stm32l4xx/STM32L4xx_HAL_Driver/Src/stm32l4xx_hal_dac.c ****     hdac->DMA_Handle1->XferHalfCpltCallback = DAC_DMAHalfConvCpltCh1;
 413              		.loc 1 785 5 is_stmt 1 view .LVU110
 414              		.loc 1 785 9 is_stmt 0 view .LVU111
 415 0022 A068     		ldr	r0, [r4, #8]
 416              		.loc 1 785 45 view .LVU112
 417 0024 2F4E     		ldr	r6, .L48+4
 418 0026 0663     		str	r6, [r0, #48]
 786:stm/stm32l4xx/STM32L4xx_HAL_Driver/Src/stm32l4xx_hal_dac.c **** 
 787:stm/stm32l4xx/STM32L4xx_HAL_Driver/Src/stm32l4xx_hal_dac.c ****     /* Set the DMA error callback for channel1 */
 788:stm/stm32l4xx/STM32L4xx_HAL_Driver/Src/stm32l4xx_hal_dac.c ****     hdac->DMA_Handle1->XferErrorCallback = DAC_DMAErrorCh1;
 419              		.loc 1 788 5 is_stmt 1 view .LVU113
 420              		.loc 1 788 9 is_stmt 0 view .LVU114
 421 0028 A068     		ldr	r0, [r4, #8]
 422              		.loc 1 788 42 view .LVU115
 423 002a 2F4E     		ldr	r6, .L48+8
 424 002c 4663     		str	r6, [r0, #52]
 789:stm/stm32l4xx/STM32L4xx_HAL_Driver/Src/stm32l4xx_hal_dac.c **** 
 790:stm/stm32l4xx/STM32L4xx_HAL_Driver/Src/stm32l4xx_hal_dac.c ****     /* Enable the selected DAC channel1 DMA request */
 791:stm/stm32l4xx/STM32L4xx_HAL_Driver/Src/stm32l4xx_hal_dac.c ****     SET_BIT(hdac->Instance->CR, DAC_CR_DMAEN1);
 425              		.loc 1 791 5 is_stmt 1 view .LVU116
 426 002e 2668     		ldr	r6, [r4]
ARM GAS  /tmp/cc1emfwg.s 			page 23


 427 0030 3068     		ldr	r0, [r6]
 428 0032 40F48050 		orr	r0, r0, #4096
 429 0036 3060     		str	r0, [r6]
 792:stm/stm32l4xx/STM32L4xx_HAL_Driver/Src/stm32l4xx_hal_dac.c **** 
 793:stm/stm32l4xx/STM32L4xx_HAL_Driver/Src/stm32l4xx_hal_dac.c ****     /* Case of use of channel 1 */
 794:stm/stm32l4xx/STM32L4xx_HAL_Driver/Src/stm32l4xx_hal_dac.c ****     switch (Alignment)
 430              		.loc 1 794 5 view .LVU117
 431 0038 042A     		cmp	r2, #4
 432 003a 1DD0     		beq	.L34
 433 003c 082A     		cmp	r2, #8
 434 003e 1ED0     		beq	.L35
 435 0040 BAB1     		cbz	r2, .L46
 436 0042 2A46     		mov	r2, r5
 437              	.LVL26:
 438              	.L36:
 795:stm/stm32l4xx/STM32L4xx_HAL_Driver/Src/stm32l4xx_hal_dac.c ****     {
 796:stm/stm32l4xx/STM32L4xx_HAL_Driver/Src/stm32l4xx_hal_dac.c ****       case DAC_ALIGN_12B_R:
 797:stm/stm32l4xx/STM32L4xx_HAL_Driver/Src/stm32l4xx_hal_dac.c ****         /* Get DHR12R1 address */
 798:stm/stm32l4xx/STM32L4xx_HAL_Driver/Src/stm32l4xx_hal_dac.c ****         tmpreg = (uint32_t)&hdac->Instance->DHR12R1;
 799:stm/stm32l4xx/STM32L4xx_HAL_Driver/Src/stm32l4xx_hal_dac.c ****         break;
 800:stm/stm32l4xx/STM32L4xx_HAL_Driver/Src/stm32l4xx_hal_dac.c ****       case DAC_ALIGN_12B_L:
 801:stm/stm32l4xx/STM32L4xx_HAL_Driver/Src/stm32l4xx_hal_dac.c ****         /* Get DHR12L1 address */
 802:stm/stm32l4xx/STM32L4xx_HAL_Driver/Src/stm32l4xx_hal_dac.c ****         tmpreg = (uint32_t)&hdac->Instance->DHR12L1;
 803:stm/stm32l4xx/STM32L4xx_HAL_Driver/Src/stm32l4xx_hal_dac.c ****         break;
 804:stm/stm32l4xx/STM32L4xx_HAL_Driver/Src/stm32l4xx_hal_dac.c ****       case DAC_ALIGN_8B_R:
 805:stm/stm32l4xx/STM32L4xx_HAL_Driver/Src/stm32l4xx_hal_dac.c ****         /* Get DHR8R1 address */
 806:stm/stm32l4xx/STM32L4xx_HAL_Driver/Src/stm32l4xx_hal_dac.c ****         tmpreg = (uint32_t)&hdac->Instance->DHR8R1;
 807:stm/stm32l4xx/STM32L4xx_HAL_Driver/Src/stm32l4xx_hal_dac.c ****         break;
 808:stm/stm32l4xx/STM32L4xx_HAL_Driver/Src/stm32l4xx_hal_dac.c ****       default:
 809:stm/stm32l4xx/STM32L4xx_HAL_Driver/Src/stm32l4xx_hal_dac.c ****         break;
 810:stm/stm32l4xx/STM32L4xx_HAL_Driver/Src/stm32l4xx_hal_dac.c ****     }
 811:stm/stm32l4xx/STM32L4xx_HAL_Driver/Src/stm32l4xx_hal_dac.c ****   }
 812:stm/stm32l4xx/STM32L4xx_HAL_Driver/Src/stm32l4xx_hal_dac.c ****   else
 813:stm/stm32l4xx/STM32L4xx_HAL_Driver/Src/stm32l4xx_hal_dac.c ****   {
 814:stm/stm32l4xx/STM32L4xx_HAL_Driver/Src/stm32l4xx_hal_dac.c ****     /* Set the DMA transfer complete callback for channel2 */
 815:stm/stm32l4xx/STM32L4xx_HAL_Driver/Src/stm32l4xx_hal_dac.c ****     hdac->DMA_Handle2->XferCpltCallback = DAC_DMAConvCpltCh2;
 816:stm/stm32l4xx/STM32L4xx_HAL_Driver/Src/stm32l4xx_hal_dac.c **** 
 817:stm/stm32l4xx/STM32L4xx_HAL_Driver/Src/stm32l4xx_hal_dac.c ****     /* Set the DMA half transfer complete callback for channel2 */
 818:stm/stm32l4xx/STM32L4xx_HAL_Driver/Src/stm32l4xx_hal_dac.c ****     hdac->DMA_Handle2->XferHalfCpltCallback = DAC_DMAHalfConvCpltCh2;
 819:stm/stm32l4xx/STM32L4xx_HAL_Driver/Src/stm32l4xx_hal_dac.c **** 
 820:stm/stm32l4xx/STM32L4xx_HAL_Driver/Src/stm32l4xx_hal_dac.c ****     /* Set the DMA error callback for channel2 */
 821:stm/stm32l4xx/STM32L4xx_HAL_Driver/Src/stm32l4xx_hal_dac.c ****     hdac->DMA_Handle2->XferErrorCallback = DAC_DMAErrorCh2;
 822:stm/stm32l4xx/STM32L4xx_HAL_Driver/Src/stm32l4xx_hal_dac.c **** 
 823:stm/stm32l4xx/STM32L4xx_HAL_Driver/Src/stm32l4xx_hal_dac.c ****     /* Enable the selected DAC channel2 DMA request */
 824:stm/stm32l4xx/STM32L4xx_HAL_Driver/Src/stm32l4xx_hal_dac.c ****     SET_BIT(hdac->Instance->CR, DAC_CR_DMAEN2);
 825:stm/stm32l4xx/STM32L4xx_HAL_Driver/Src/stm32l4xx_hal_dac.c **** 
 826:stm/stm32l4xx/STM32L4xx_HAL_Driver/Src/stm32l4xx_hal_dac.c ****     /* Case of use of channel 2 */
 827:stm/stm32l4xx/STM32L4xx_HAL_Driver/Src/stm32l4xx_hal_dac.c ****     switch (Alignment)
 828:stm/stm32l4xx/STM32L4xx_HAL_Driver/Src/stm32l4xx_hal_dac.c ****     {
 829:stm/stm32l4xx/STM32L4xx_HAL_Driver/Src/stm32l4xx_hal_dac.c ****       case DAC_ALIGN_12B_R:
 830:stm/stm32l4xx/STM32L4xx_HAL_Driver/Src/stm32l4xx_hal_dac.c ****         /* Get DHR12R2 address */
 831:stm/stm32l4xx/STM32L4xx_HAL_Driver/Src/stm32l4xx_hal_dac.c ****         tmpreg = (uint32_t)&hdac->Instance->DHR12R2;
 832:stm/stm32l4xx/STM32L4xx_HAL_Driver/Src/stm32l4xx_hal_dac.c ****         break;
 833:stm/stm32l4xx/STM32L4xx_HAL_Driver/Src/stm32l4xx_hal_dac.c ****       case DAC_ALIGN_12B_L:
 834:stm/stm32l4xx/STM32L4xx_HAL_Driver/Src/stm32l4xx_hal_dac.c ****         /* Get DHR12L2 address */
 835:stm/stm32l4xx/STM32L4xx_HAL_Driver/Src/stm32l4xx_hal_dac.c ****         tmpreg = (uint32_t)&hdac->Instance->DHR12L2;
 836:stm/stm32l4xx/STM32L4xx_HAL_Driver/Src/stm32l4xx_hal_dac.c ****         break;
ARM GAS  /tmp/cc1emfwg.s 			page 24


 837:stm/stm32l4xx/STM32L4xx_HAL_Driver/Src/stm32l4xx_hal_dac.c ****       case DAC_ALIGN_8B_R:
 838:stm/stm32l4xx/STM32L4xx_HAL_Driver/Src/stm32l4xx_hal_dac.c ****         /* Get DHR8R2 address */
 839:stm/stm32l4xx/STM32L4xx_HAL_Driver/Src/stm32l4xx_hal_dac.c ****         tmpreg = (uint32_t)&hdac->Instance->DHR8R2;
 840:stm/stm32l4xx/STM32L4xx_HAL_Driver/Src/stm32l4xx_hal_dac.c ****         break;
 841:stm/stm32l4xx/STM32L4xx_HAL_Driver/Src/stm32l4xx_hal_dac.c ****       default:
 842:stm/stm32l4xx/STM32L4xx_HAL_Driver/Src/stm32l4xx_hal_dac.c ****         break;
 843:stm/stm32l4xx/STM32L4xx_HAL_Driver/Src/stm32l4xx_hal_dac.c ****     }
 844:stm/stm32l4xx/STM32L4xx_HAL_Driver/Src/stm32l4xx_hal_dac.c ****   }
 845:stm/stm32l4xx/STM32L4xx_HAL_Driver/Src/stm32l4xx_hal_dac.c **** 
 846:stm/stm32l4xx/STM32L4xx_HAL_Driver/Src/stm32l4xx_hal_dac.c ****   /* Enable the DMA channel */
 847:stm/stm32l4xx/STM32L4xx_HAL_Driver/Src/stm32l4xx_hal_dac.c ****   if (Channel == DAC_CHANNEL_1)
 439              		.loc 1 847 3 view .LVU118
 440              		.loc 1 847 6 is_stmt 0 view .LVU119
 441 0044 002D     		cmp	r5, #0
 442 0046 3BD1     		bne	.L39
 848:stm/stm32l4xx/STM32L4xx_HAL_Driver/Src/stm32l4xx_hal_dac.c ****   {
 849:stm/stm32l4xx/STM32L4xx_HAL_Driver/Src/stm32l4xx_hal_dac.c ****     /* Enable the DAC DMA underrun interrupt */
 850:stm/stm32l4xx/STM32L4xx_HAL_Driver/Src/stm32l4xx_hal_dac.c ****     __HAL_DAC_ENABLE_IT(hdac, DAC_IT_DMAUDR1);
 443              		.loc 1 850 5 is_stmt 1 view .LVU120
 444 0048 2668     		ldr	r6, [r4]
 445 004a 3068     		ldr	r0, [r6]
 446 004c 40F40050 		orr	r0, r0, #8192
 447 0050 3060     		str	r0, [r6]
 851:stm/stm32l4xx/STM32L4xx_HAL_Driver/Src/stm32l4xx_hal_dac.c **** 
 852:stm/stm32l4xx/STM32L4xx_HAL_Driver/Src/stm32l4xx_hal_dac.c ****     /* Enable the DMA channel */
 853:stm/stm32l4xx/STM32L4xx_HAL_Driver/Src/stm32l4xx_hal_dac.c ****     status = HAL_DMA_Start_IT(hdac->DMA_Handle1, (uint32_t)pData, tmpreg, Length);
 448              		.loc 1 853 5 view .LVU121
 449              		.loc 1 853 14 is_stmt 0 view .LVU122
 450 0052 A068     		ldr	r0, [r4, #8]
 451 0054 FFF7FEFF 		bl	HAL_DMA_Start_IT
 452              	.LVL27:
 453              	.L40:
 854:stm/stm32l4xx/STM32L4xx_HAL_Driver/Src/stm32l4xx_hal_dac.c ****   }
 855:stm/stm32l4xx/STM32L4xx_HAL_Driver/Src/stm32l4xx_hal_dac.c ****   else
 856:stm/stm32l4xx/STM32L4xx_HAL_Driver/Src/stm32l4xx_hal_dac.c ****   {
 857:stm/stm32l4xx/STM32L4xx_HAL_Driver/Src/stm32l4xx_hal_dac.c ****     /* Enable the DAC DMA underrun interrupt */
 858:stm/stm32l4xx/STM32L4xx_HAL_Driver/Src/stm32l4xx_hal_dac.c ****     __HAL_DAC_ENABLE_IT(hdac, DAC_IT_DMAUDR2);
 859:stm/stm32l4xx/STM32L4xx_HAL_Driver/Src/stm32l4xx_hal_dac.c **** 
 860:stm/stm32l4xx/STM32L4xx_HAL_Driver/Src/stm32l4xx_hal_dac.c ****     /* Enable the DMA channel */
 861:stm/stm32l4xx/STM32L4xx_HAL_Driver/Src/stm32l4xx_hal_dac.c ****     status = HAL_DMA_Start_IT(hdac->DMA_Handle2, (uint32_t)pData, tmpreg, Length);
 862:stm/stm32l4xx/STM32L4xx_HAL_Driver/Src/stm32l4xx_hal_dac.c ****   }
 863:stm/stm32l4xx/STM32L4xx_HAL_Driver/Src/stm32l4xx_hal_dac.c **** 
 864:stm/stm32l4xx/STM32L4xx_HAL_Driver/Src/stm32l4xx_hal_dac.c ****   /* Process Unlocked */
 865:stm/stm32l4xx/STM32L4xx_HAL_Driver/Src/stm32l4xx_hal_dac.c ****   __HAL_UNLOCK(hdac);
 454              		.loc 1 865 3 is_stmt 1 view .LVU123
 455              		.loc 1 865 3 view .LVU124
 456 0058 0023     		movs	r3, #0
 457 005a 6371     		strb	r3, [r4, #5]
 458              		.loc 1 865 3 view .LVU125
 866:stm/stm32l4xx/STM32L4xx_HAL_Driver/Src/stm32l4xx_hal_dac.c **** 
 867:stm/stm32l4xx/STM32L4xx_HAL_Driver/Src/stm32l4xx_hal_dac.c ****   if (status == HAL_OK)
 459              		.loc 1 867 3 view .LVU126
 460              		.loc 1 867 6 is_stmt 0 view .LVU127
 461 005c 0028     		cmp	r0, #0
 462 005e 38D1     		bne	.L41
 868:stm/stm32l4xx/STM32L4xx_HAL_Driver/Src/stm32l4xx_hal_dac.c ****   {
 869:stm/stm32l4xx/STM32L4xx_HAL_Driver/Src/stm32l4xx_hal_dac.c ****     /* Enable the Peripheral */
ARM GAS  /tmp/cc1emfwg.s 			page 25


 870:stm/stm32l4xx/STM32L4xx_HAL_Driver/Src/stm32l4xx_hal_dac.c ****     __HAL_DAC_ENABLE(hdac, Channel);
 463              		.loc 1 870 5 is_stmt 1 view .LVU128
 464 0060 2168     		ldr	r1, [r4]
 465 0062 0B68     		ldr	r3, [r1]
 466 0064 05F01005 		and	r5, r5, #16
 467              	.LVL28:
 468              		.loc 1 870 5 is_stmt 0 view .LVU129
 469 0068 0122     		movs	r2, #1
 470 006a AA40     		lsls	r2, r2, r5
 471 006c 1343     		orrs	r3, r3, r2
 472 006e 0B60     		str	r3, [r1]
 473              	.LVL29:
 474              	.L32:
 871:stm/stm32l4xx/STM32L4xx_HAL_Driver/Src/stm32l4xx_hal_dac.c ****   }
 872:stm/stm32l4xx/STM32L4xx_HAL_Driver/Src/stm32l4xx_hal_dac.c ****   else
 873:stm/stm32l4xx/STM32L4xx_HAL_Driver/Src/stm32l4xx_hal_dac.c ****   {
 874:stm/stm32l4xx/STM32L4xx_HAL_Driver/Src/stm32l4xx_hal_dac.c ****     hdac->ErrorCode |= HAL_DAC_ERROR_DMA;
 875:stm/stm32l4xx/STM32L4xx_HAL_Driver/Src/stm32l4xx_hal_dac.c ****   }
 876:stm/stm32l4xx/STM32L4xx_HAL_Driver/Src/stm32l4xx_hal_dac.c **** 
 877:stm/stm32l4xx/STM32L4xx_HAL_Driver/Src/stm32l4xx_hal_dac.c ****   /* Return function status */
 878:stm/stm32l4xx/STM32L4xx_HAL_Driver/Src/stm32l4xx_hal_dac.c ****   return status;
 879:stm/stm32l4xx/STM32L4xx_HAL_Driver/Src/stm32l4xx_hal_dac.c **** }
 475              		.loc 1 879 1 view .LVU130
 476 0070 70BD     		pop	{r4, r5, r6, pc}
 477              	.LVL30:
 478              	.L46:
 798:stm/stm32l4xx/STM32L4xx_HAL_Driver/Src/stm32l4xx_hal_dac.c ****         break;
 479              		.loc 1 798 9 is_stmt 1 view .LVU131
 798:stm/stm32l4xx/STM32L4xx_HAL_Driver/Src/stm32l4xx_hal_dac.c ****         break;
 480              		.loc 1 798 33 is_stmt 0 view .LVU132
 481 0072 2268     		ldr	r2, [r4]
 798:stm/stm32l4xx/STM32L4xx_HAL_Driver/Src/stm32l4xx_hal_dac.c ****         break;
 482              		.loc 1 798 28 view .LVU133
 483 0074 0832     		adds	r2, r2, #8
 484              	.LVL31:
 799:stm/stm32l4xx/STM32L4xx_HAL_Driver/Src/stm32l4xx_hal_dac.c ****       case DAC_ALIGN_12B_L:
 485              		.loc 1 799 9 is_stmt 1 view .LVU134
 486 0076 E5E7     		b	.L36
 487              	.LVL32:
 488              	.L34:
 802:stm/stm32l4xx/STM32L4xx_HAL_Driver/Src/stm32l4xx_hal_dac.c ****         break;
 489              		.loc 1 802 9 view .LVU135
 802:stm/stm32l4xx/STM32L4xx_HAL_Driver/Src/stm32l4xx_hal_dac.c ****         break;
 490              		.loc 1 802 33 is_stmt 0 view .LVU136
 491 0078 2268     		ldr	r2, [r4]
 802:stm/stm32l4xx/STM32L4xx_HAL_Driver/Src/stm32l4xx_hal_dac.c ****         break;
 492              		.loc 1 802 28 view .LVU137
 493 007a 0C32     		adds	r2, r2, #12
 494              	.LVL33:
 803:stm/stm32l4xx/STM32L4xx_HAL_Driver/Src/stm32l4xx_hal_dac.c ****       case DAC_ALIGN_8B_R:
 495              		.loc 1 803 9 is_stmt 1 view .LVU138
 496 007c E2E7     		b	.L36
 497              	.LVL34:
 498              	.L35:
 806:stm/stm32l4xx/STM32L4xx_HAL_Driver/Src/stm32l4xx_hal_dac.c ****         break;
 499              		.loc 1 806 9 view .LVU139
 806:stm/stm32l4xx/STM32L4xx_HAL_Driver/Src/stm32l4xx_hal_dac.c ****         break;
ARM GAS  /tmp/cc1emfwg.s 			page 26


 500              		.loc 1 806 33 is_stmt 0 view .LVU140
 501 007e 2268     		ldr	r2, [r4]
 806:stm/stm32l4xx/STM32L4xx_HAL_Driver/Src/stm32l4xx_hal_dac.c ****         break;
 502              		.loc 1 806 28 view .LVU141
 503 0080 1032     		adds	r2, r2, #16
 504              	.LVL35:
 807:stm/stm32l4xx/STM32L4xx_HAL_Driver/Src/stm32l4xx_hal_dac.c ****       default:
 505              		.loc 1 807 9 is_stmt 1 view .LVU142
 506 0082 DFE7     		b	.L36
 507              	.LVL36:
 508              	.L33:
 815:stm/stm32l4xx/STM32L4xx_HAL_Driver/Src/stm32l4xx_hal_dac.c **** 
 509              		.loc 1 815 5 view .LVU143
 815:stm/stm32l4xx/STM32L4xx_HAL_Driver/Src/stm32l4xx_hal_dac.c **** 
 510              		.loc 1 815 9 is_stmt 0 view .LVU144
 511 0084 E068     		ldr	r0, [r4, #12]
 815:stm/stm32l4xx/STM32L4xx_HAL_Driver/Src/stm32l4xx_hal_dac.c **** 
 512              		.loc 1 815 41 view .LVU145
 513 0086 194E     		ldr	r6, .L48+12
 514 0088 C662     		str	r6, [r0, #44]
 818:stm/stm32l4xx/STM32L4xx_HAL_Driver/Src/stm32l4xx_hal_dac.c **** 
 515              		.loc 1 818 5 is_stmt 1 view .LVU146
 818:stm/stm32l4xx/STM32L4xx_HAL_Driver/Src/stm32l4xx_hal_dac.c **** 
 516              		.loc 1 818 9 is_stmt 0 view .LVU147
 517 008a E068     		ldr	r0, [r4, #12]
 818:stm/stm32l4xx/STM32L4xx_HAL_Driver/Src/stm32l4xx_hal_dac.c **** 
 518              		.loc 1 818 45 view .LVU148
 519 008c 184E     		ldr	r6, .L48+16
 520 008e 0663     		str	r6, [r0, #48]
 821:stm/stm32l4xx/STM32L4xx_HAL_Driver/Src/stm32l4xx_hal_dac.c **** 
 521              		.loc 1 821 5 is_stmt 1 view .LVU149
 821:stm/stm32l4xx/STM32L4xx_HAL_Driver/Src/stm32l4xx_hal_dac.c **** 
 522              		.loc 1 821 9 is_stmt 0 view .LVU150
 523 0090 E068     		ldr	r0, [r4, #12]
 821:stm/stm32l4xx/STM32L4xx_HAL_Driver/Src/stm32l4xx_hal_dac.c **** 
 524              		.loc 1 821 42 view .LVU151
 525 0092 184E     		ldr	r6, .L48+20
 526 0094 4663     		str	r6, [r0, #52]
 824:stm/stm32l4xx/STM32L4xx_HAL_Driver/Src/stm32l4xx_hal_dac.c **** 
 527              		.loc 1 824 5 is_stmt 1 view .LVU152
 528 0096 2668     		ldr	r6, [r4]
 529 0098 3068     		ldr	r0, [r6]
 530 009a 40F08050 		orr	r0, r0, #268435456
 531 009e 3060     		str	r0, [r6]
 827:stm/stm32l4xx/STM32L4xx_HAL_Driver/Src/stm32l4xx_hal_dac.c ****     {
 532              		.loc 1 827 5 view .LVU153
 533 00a0 042A     		cmp	r2, #4
 534 00a2 07D0     		beq	.L37
 535 00a4 082A     		cmp	r2, #8
 536 00a6 08D0     		beq	.L38
 537 00a8 0AB1     		cbz	r2, .L47
 538 00aa 0022     		movs	r2, #0
 539 00ac CAE7     		b	.L36
 540              	.L47:
 831:stm/stm32l4xx/STM32L4xx_HAL_Driver/Src/stm32l4xx_hal_dac.c ****         break;
 541              		.loc 1 831 9 view .LVU154
 831:stm/stm32l4xx/STM32L4xx_HAL_Driver/Src/stm32l4xx_hal_dac.c ****         break;
ARM GAS  /tmp/cc1emfwg.s 			page 27


 542              		.loc 1 831 33 is_stmt 0 view .LVU155
 543 00ae 2268     		ldr	r2, [r4]
 831:stm/stm32l4xx/STM32L4xx_HAL_Driver/Src/stm32l4xx_hal_dac.c ****         break;
 544              		.loc 1 831 28 view .LVU156
 545 00b0 1432     		adds	r2, r2, #20
 546              	.LVL37:
 832:stm/stm32l4xx/STM32L4xx_HAL_Driver/Src/stm32l4xx_hal_dac.c ****       case DAC_ALIGN_12B_L:
 547              		.loc 1 832 9 is_stmt 1 view .LVU157
 548 00b2 C7E7     		b	.L36
 549              	.LVL38:
 550              	.L37:
 835:stm/stm32l4xx/STM32L4xx_HAL_Driver/Src/stm32l4xx_hal_dac.c ****         break;
 551              		.loc 1 835 9 view .LVU158
 835:stm/stm32l4xx/STM32L4xx_HAL_Driver/Src/stm32l4xx_hal_dac.c ****         break;
 552              		.loc 1 835 33 is_stmt 0 view .LVU159
 553 00b4 2268     		ldr	r2, [r4]
 835:stm/stm32l4xx/STM32L4xx_HAL_Driver/Src/stm32l4xx_hal_dac.c ****         break;
 554              		.loc 1 835 28 view .LVU160
 555 00b6 1832     		adds	r2, r2, #24
 556              	.LVL39:
 836:stm/stm32l4xx/STM32L4xx_HAL_Driver/Src/stm32l4xx_hal_dac.c ****       case DAC_ALIGN_8B_R:
 557              		.loc 1 836 9 is_stmt 1 view .LVU161
 558 00b8 C4E7     		b	.L36
 559              	.LVL40:
 560              	.L38:
 839:stm/stm32l4xx/STM32L4xx_HAL_Driver/Src/stm32l4xx_hal_dac.c ****         break;
 561              		.loc 1 839 9 view .LVU162
 839:stm/stm32l4xx/STM32L4xx_HAL_Driver/Src/stm32l4xx_hal_dac.c ****         break;
 562              		.loc 1 839 33 is_stmt 0 view .LVU163
 563 00ba 2268     		ldr	r2, [r4]
 839:stm/stm32l4xx/STM32L4xx_HAL_Driver/Src/stm32l4xx_hal_dac.c ****         break;
 564              		.loc 1 839 28 view .LVU164
 565 00bc 1C32     		adds	r2, r2, #28
 566              	.LVL41:
 840:stm/stm32l4xx/STM32L4xx_HAL_Driver/Src/stm32l4xx_hal_dac.c ****       default:
 567              		.loc 1 840 9 is_stmt 1 view .LVU165
 568 00be C1E7     		b	.L36
 569              	.L39:
 858:stm/stm32l4xx/STM32L4xx_HAL_Driver/Src/stm32l4xx_hal_dac.c **** 
 570              		.loc 1 858 5 view .LVU166
 571 00c0 2668     		ldr	r6, [r4]
 572 00c2 3068     		ldr	r0, [r6]
 573 00c4 40F00050 		orr	r0, r0, #536870912
 574 00c8 3060     		str	r0, [r6]
 861:stm/stm32l4xx/STM32L4xx_HAL_Driver/Src/stm32l4xx_hal_dac.c ****   }
 575              		.loc 1 861 5 view .LVU167
 861:stm/stm32l4xx/STM32L4xx_HAL_Driver/Src/stm32l4xx_hal_dac.c ****   }
 576              		.loc 1 861 14 is_stmt 0 view .LVU168
 577 00ca E068     		ldr	r0, [r4, #12]
 578 00cc FFF7FEFF 		bl	HAL_DMA_Start_IT
 579              	.LVL42:
 861:stm/stm32l4xx/STM32L4xx_HAL_Driver/Src/stm32l4xx_hal_dac.c ****   }
 580              		.loc 1 861 14 view .LVU169
 581 00d0 C2E7     		b	.L40
 582              	.L41:
 874:stm/stm32l4xx/STM32L4xx_HAL_Driver/Src/stm32l4xx_hal_dac.c ****   }
 583              		.loc 1 874 5 is_stmt 1 view .LVU170
ARM GAS  /tmp/cc1emfwg.s 			page 28


 874:stm/stm32l4xx/STM32L4xx_HAL_Driver/Src/stm32l4xx_hal_dac.c ****   }
 584              		.loc 1 874 9 is_stmt 0 view .LVU171
 585 00d2 2369     		ldr	r3, [r4, #16]
 874:stm/stm32l4xx/STM32L4xx_HAL_Driver/Src/stm32l4xx_hal_dac.c ****   }
 586              		.loc 1 874 21 view .LVU172
 587 00d4 43F00403 		orr	r3, r3, #4
 588 00d8 2361     		str	r3, [r4, #16]
 589 00da C9E7     		b	.L32
 590              	.LVL43:
 591              	.L42:
 774:stm/stm32l4xx/STM32L4xx_HAL_Driver/Src/stm32l4xx_hal_dac.c **** 
 592              		.loc 1 774 3 view .LVU173
 593 00dc 0220     		movs	r0, #2
 594 00de C7E7     		b	.L32
 595              	.L49:
 596              		.align	2
 597              	.L48:
 598 00e0 00000000 		.word	DAC_DMAConvCpltCh1
 599 00e4 00000000 		.word	DAC_DMAHalfConvCpltCh1
 600 00e8 00000000 		.word	DAC_DMAErrorCh1
 601 00ec 00000000 		.word	DAC_DMAConvCpltCh2
 602 00f0 00000000 		.word	DAC_DMAHalfConvCpltCh2
 603 00f4 00000000 		.word	DAC_DMAErrorCh2
 604              		.cfi_endproc
 605              	.LFE294:
 607              		.section	.text.HAL_DAC_Stop_DMA,"ax",%progbits
 608              		.align	1
 609              		.global	HAL_DAC_Stop_DMA
 610              		.syntax unified
 611              		.thumb
 612              		.thumb_func
 614              	HAL_DAC_Stop_DMA:
 615              	.LVL44:
 616              	.LFB295:
 880:stm/stm32l4xx/STM32L4xx_HAL_Driver/Src/stm32l4xx_hal_dac.c **** #endif  /* STM32L431xx STM32L432xx STM32L433xx STM32L442xx STM32L443xx                         */
 881:stm/stm32l4xx/STM32L4xx_HAL_Driver/Src/stm32l4xx_hal_dac.c ****         /* STM32L471xx STM32L475xx STM32L476xx STM32L485xx STM32L486xx STM32L496xx STM32L4A6xx */
 882:stm/stm32l4xx/STM32L4xx_HAL_Driver/Src/stm32l4xx_hal_dac.c ****         /* STM32L4P5xx STM32L4Q5xx                                                             */
 883:stm/stm32l4xx/STM32L4xx_HAL_Driver/Src/stm32l4xx_hal_dac.c ****         /* STM32L4R5xx STM32L4R7xx STM32L4R9xx STM32L4S5xx STM32L4S7xx STM32L4S9xx             */
 884:stm/stm32l4xx/STM32L4xx_HAL_Driver/Src/stm32l4xx_hal_dac.c **** 
 885:stm/stm32l4xx/STM32L4xx_HAL_Driver/Src/stm32l4xx_hal_dac.c **** /**
 886:stm/stm32l4xx/STM32L4xx_HAL_Driver/Src/stm32l4xx_hal_dac.c ****   * @brief  Disables DAC and stop conversion of channel.
 887:stm/stm32l4xx/STM32L4xx_HAL_Driver/Src/stm32l4xx_hal_dac.c ****   * @param  hdac pointer to a DAC_HandleTypeDef structure that contains
 888:stm/stm32l4xx/STM32L4xx_HAL_Driver/Src/stm32l4xx_hal_dac.c ****   *         the configuration information for the specified DAC.
 889:stm/stm32l4xx/STM32L4xx_HAL_Driver/Src/stm32l4xx_hal_dac.c ****   * @param  Channel The selected DAC channel.
 890:stm/stm32l4xx/STM32L4xx_HAL_Driver/Src/stm32l4xx_hal_dac.c ****   *          This parameter can be one of the following values:
 891:stm/stm32l4xx/STM32L4xx_HAL_Driver/Src/stm32l4xx_hal_dac.c ****   *            @arg DAC_CHANNEL_1: DAC Channel1 selected
 892:stm/stm32l4xx/STM32L4xx_HAL_Driver/Src/stm32l4xx_hal_dac.c ****   *            @arg DAC_CHANNEL_2: DAC Channel2 selected
 893:stm/stm32l4xx/STM32L4xx_HAL_Driver/Src/stm32l4xx_hal_dac.c ****   * @retval HAL status
 894:stm/stm32l4xx/STM32L4xx_HAL_Driver/Src/stm32l4xx_hal_dac.c ****   */
 895:stm/stm32l4xx/STM32L4xx_HAL_Driver/Src/stm32l4xx_hal_dac.c **** HAL_StatusTypeDef HAL_DAC_Stop_DMA(DAC_HandleTypeDef *hdac, uint32_t Channel)
 896:stm/stm32l4xx/STM32L4xx_HAL_Driver/Src/stm32l4xx_hal_dac.c **** {
 617              		.loc 1 896 1 is_stmt 1 view -0
 618              		.cfi_startproc
 619              		@ args = 0, pretend = 0, frame = 0
 620              		@ frame_needed = 0, uses_anonymous_args = 0
 621              		.loc 1 896 1 is_stmt 0 view .LVU175
 622 0000 10B5     		push	{r4, lr}
ARM GAS  /tmp/cc1emfwg.s 			page 29


 623              	.LCFI11:
 624              		.cfi_def_cfa_offset 8
 625              		.cfi_offset 4, -8
 626              		.cfi_offset 14, -4
 627 0002 0446     		mov	r4, r0
 897:stm/stm32l4xx/STM32L4xx_HAL_Driver/Src/stm32l4xx_hal_dac.c ****   /* Check the parameters */
 898:stm/stm32l4xx/STM32L4xx_HAL_Driver/Src/stm32l4xx_hal_dac.c ****   assert_param(IS_DAC_CHANNEL(Channel));
 628              		.loc 1 898 3 is_stmt 1 view .LVU176
 899:stm/stm32l4xx/STM32L4xx_HAL_Driver/Src/stm32l4xx_hal_dac.c **** 
 900:stm/stm32l4xx/STM32L4xx_HAL_Driver/Src/stm32l4xx_hal_dac.c ****   /* Disable the selected DAC channel DMA request */
 901:stm/stm32l4xx/STM32L4xx_HAL_Driver/Src/stm32l4xx_hal_dac.c ****   hdac->Instance->CR &= ~(DAC_CR_DMAEN1 << (Channel & 0x10UL));
 629              		.loc 1 901 3 view .LVU177
 630              		.loc 1 901 7 is_stmt 0 view .LVU178
 631 0004 0068     		ldr	r0, [r0]
 632              	.LVL45:
 633              		.loc 1 901 17 view .LVU179
 634 0006 0368     		ldr	r3, [r0]
 635              		.loc 1 901 53 view .LVU180
 636 0008 01F0100C 		and	ip, r1, #16
 637              		.loc 1 901 41 view .LVU181
 638 000c 4FF48052 		mov	r2, #4096
 639 0010 02FA0CF2 		lsl	r2, r2, ip
 640              		.loc 1 901 22 view .LVU182
 641 0014 23EA0203 		bic	r3, r3, r2
 642 0018 0360     		str	r3, [r0]
 902:stm/stm32l4xx/STM32L4xx_HAL_Driver/Src/stm32l4xx_hal_dac.c **** 
 903:stm/stm32l4xx/STM32L4xx_HAL_Driver/Src/stm32l4xx_hal_dac.c ****   /* Disable the Peripheral */
 904:stm/stm32l4xx/STM32L4xx_HAL_Driver/Src/stm32l4xx_hal_dac.c ****   __HAL_DAC_DISABLE(hdac, Channel);
 643              		.loc 1 904 3 is_stmt 1 view .LVU183
 644 001a 2068     		ldr	r0, [r4]
 645 001c 0368     		ldr	r3, [r0]
 646 001e 0122     		movs	r2, #1
 647 0020 02FA0CF2 		lsl	r2, r2, ip
 648 0024 23EA0203 		bic	r3, r3, r2
 649 0028 0360     		str	r3, [r0]
 905:stm/stm32l4xx/STM32L4xx_HAL_Driver/Src/stm32l4xx_hal_dac.c **** 
 906:stm/stm32l4xx/STM32L4xx_HAL_Driver/Src/stm32l4xx_hal_dac.c ****   /* Disable the DMA channel */
 907:stm/stm32l4xx/STM32L4xx_HAL_Driver/Src/stm32l4xx_hal_dac.c **** #if defined (STM32L431xx) || defined (STM32L432xx) || defined (STM32L433xx) || defined (STM32L442xx
 908:stm/stm32l4xx/STM32L4xx_HAL_Driver/Src/stm32l4xx_hal_dac.c ****     defined (STM32L471xx) || defined (STM32L475xx) || defined (STM32L476xx) || defined (STM32L485xx
 909:stm/stm32l4xx/STM32L4xx_HAL_Driver/Src/stm32l4xx_hal_dac.c ****     defined (STM32L4P5xx) || defined (STM32L4Q5xx) || \
 910:stm/stm32l4xx/STM32L4xx_HAL_Driver/Src/stm32l4xx_hal_dac.c ****     defined (STM32L4R5xx) || defined (STM32L4R7xx) || defined (STM32L4R9xx) || defined (STM32L4S5xx
 911:stm/stm32l4xx/STM32L4xx_HAL_Driver/Src/stm32l4xx_hal_dac.c ****   /* Channel1 is used */
 912:stm/stm32l4xx/STM32L4xx_HAL_Driver/Src/stm32l4xx_hal_dac.c ****   if (Channel == DAC_CHANNEL_1)
 650              		.loc 1 912 3 view .LVU184
 651              		.loc 1 912 6 is_stmt 0 view .LVU185
 652 002a 49B9     		cbnz	r1, .L51
 913:stm/stm32l4xx/STM32L4xx_HAL_Driver/Src/stm32l4xx_hal_dac.c ****   {
 914:stm/stm32l4xx/STM32L4xx_HAL_Driver/Src/stm32l4xx_hal_dac.c ****     /* Disable the DMA channel */
 915:stm/stm32l4xx/STM32L4xx_HAL_Driver/Src/stm32l4xx_hal_dac.c ****     (void)HAL_DMA_Abort(hdac->DMA_Handle1);
 653              		.loc 1 915 5 is_stmt 1 view .LVU186
 654              		.loc 1 915 11 is_stmt 0 view .LVU187
 655 002c A068     		ldr	r0, [r4, #8]
 656 002e FFF7FEFF 		bl	HAL_DMA_Abort
 657              	.LVL46:
 916:stm/stm32l4xx/STM32L4xx_HAL_Driver/Src/stm32l4xx_hal_dac.c **** 
 917:stm/stm32l4xx/STM32L4xx_HAL_Driver/Src/stm32l4xx_hal_dac.c ****     /* Disable the DAC DMA underrun interrupt */
 918:stm/stm32l4xx/STM32L4xx_HAL_Driver/Src/stm32l4xx_hal_dac.c ****     __HAL_DAC_DISABLE_IT(hdac, DAC_IT_DMAUDR1);
ARM GAS  /tmp/cc1emfwg.s 			page 30


 658              		.loc 1 918 5 is_stmt 1 view .LVU188
 659 0032 2268     		ldr	r2, [r4]
 660 0034 1368     		ldr	r3, [r2]
 661 0036 23F40053 		bic	r3, r3, #8192
 662 003a 1360     		str	r3, [r2]
 663              	.L52:
 919:stm/stm32l4xx/STM32L4xx_HAL_Driver/Src/stm32l4xx_hal_dac.c ****   }
 920:stm/stm32l4xx/STM32L4xx_HAL_Driver/Src/stm32l4xx_hal_dac.c ****   else /* Channel2 is used for */
 921:stm/stm32l4xx/STM32L4xx_HAL_Driver/Src/stm32l4xx_hal_dac.c ****   {
 922:stm/stm32l4xx/STM32L4xx_HAL_Driver/Src/stm32l4xx_hal_dac.c ****     /* Disable the DMA channel */
 923:stm/stm32l4xx/STM32L4xx_HAL_Driver/Src/stm32l4xx_hal_dac.c ****     (void)HAL_DMA_Abort(hdac->DMA_Handle2);
 924:stm/stm32l4xx/STM32L4xx_HAL_Driver/Src/stm32l4xx_hal_dac.c **** 
 925:stm/stm32l4xx/STM32L4xx_HAL_Driver/Src/stm32l4xx_hal_dac.c ****     /* Disable the DAC DMA underrun interrupt */
 926:stm/stm32l4xx/STM32L4xx_HAL_Driver/Src/stm32l4xx_hal_dac.c ****     __HAL_DAC_DISABLE_IT(hdac, DAC_IT_DMAUDR2);
 927:stm/stm32l4xx/STM32L4xx_HAL_Driver/Src/stm32l4xx_hal_dac.c ****   }
 928:stm/stm32l4xx/STM32L4xx_HAL_Driver/Src/stm32l4xx_hal_dac.c **** #endif  /* STM32L431xx STM32L432xx STM32L433xx STM32L442xx STM32L443xx                         */
 929:stm/stm32l4xx/STM32L4xx_HAL_Driver/Src/stm32l4xx_hal_dac.c ****         /* STM32L471xx STM32L475xx STM32L476xx STM32L485xx STM32L486xx STM32L496xx STM32L4A6xx */
 930:stm/stm32l4xx/STM32L4xx_HAL_Driver/Src/stm32l4xx_hal_dac.c ****         /* STM32L4P5xx STM32L4Q5xx                                                             */
 931:stm/stm32l4xx/STM32L4xx_HAL_Driver/Src/stm32l4xx_hal_dac.c ****         /* STM32L4R5xx STM32L4R7xx STM32L4R9xx STM32L4S5xx STM32L4S7xx STM32L4S9xx             */
 932:stm/stm32l4xx/STM32L4xx_HAL_Driver/Src/stm32l4xx_hal_dac.c **** 
 933:stm/stm32l4xx/STM32L4xx_HAL_Driver/Src/stm32l4xx_hal_dac.c **** #if defined (STM32L451xx) || defined (STM32L452xx) || defined (STM32L462xx)
 934:stm/stm32l4xx/STM32L4xx_HAL_Driver/Src/stm32l4xx_hal_dac.c ****   /* Disable the DMA channel */
 935:stm/stm32l4xx/STM32L4xx_HAL_Driver/Src/stm32l4xx_hal_dac.c ****   (void)HAL_DMA_Abort(hdac->DMA_Handle1);
 936:stm/stm32l4xx/STM32L4xx_HAL_Driver/Src/stm32l4xx_hal_dac.c **** 
 937:stm/stm32l4xx/STM32L4xx_HAL_Driver/Src/stm32l4xx_hal_dac.c ****   /* Disable the DAC DMA underrun interrupt */
 938:stm/stm32l4xx/STM32L4xx_HAL_Driver/Src/stm32l4xx_hal_dac.c ****   __HAL_DAC_DISABLE_IT(hdac, DAC_IT_DMAUDR1);
 939:stm/stm32l4xx/STM32L4xx_HAL_Driver/Src/stm32l4xx_hal_dac.c **** #endif /* STM32L451xx STM32L452xx STM32L462xx */
 940:stm/stm32l4xx/STM32L4xx_HAL_Driver/Src/stm32l4xx_hal_dac.c **** 
 941:stm/stm32l4xx/STM32L4xx_HAL_Driver/Src/stm32l4xx_hal_dac.c ****   /* Return function status */
 942:stm/stm32l4xx/STM32L4xx_HAL_Driver/Src/stm32l4xx_hal_dac.c ****   return HAL_OK;
 664              		.loc 1 942 3 view .LVU189
 943:stm/stm32l4xx/STM32L4xx_HAL_Driver/Src/stm32l4xx_hal_dac.c **** }
 665              		.loc 1 943 1 is_stmt 0 view .LVU190
 666 003c 0020     		movs	r0, #0
 667 003e 10BD     		pop	{r4, pc}
 668              	.LVL47:
 669              	.L51:
 923:stm/stm32l4xx/STM32L4xx_HAL_Driver/Src/stm32l4xx_hal_dac.c **** 
 670              		.loc 1 923 5 is_stmt 1 view .LVU191
 923:stm/stm32l4xx/STM32L4xx_HAL_Driver/Src/stm32l4xx_hal_dac.c **** 
 671              		.loc 1 923 11 is_stmt 0 view .LVU192
 672 0040 E068     		ldr	r0, [r4, #12]
 673 0042 FFF7FEFF 		bl	HAL_DMA_Abort
 674              	.LVL48:
 926:stm/stm32l4xx/STM32L4xx_HAL_Driver/Src/stm32l4xx_hal_dac.c ****   }
 675              		.loc 1 926 5 is_stmt 1 view .LVU193
 676 0046 2268     		ldr	r2, [r4]
 677 0048 1368     		ldr	r3, [r2]
 678 004a 23F00053 		bic	r3, r3, #536870912
 679 004e 1360     		str	r3, [r2]
 680 0050 F4E7     		b	.L52
 681              		.cfi_endproc
 682              	.LFE295:
 684              		.section	.text.HAL_DAC_SetValue,"ax",%progbits
 685              		.align	1
 686              		.global	HAL_DAC_SetValue
 687              		.syntax unified
ARM GAS  /tmp/cc1emfwg.s 			page 31


 688              		.thumb
 689              		.thumb_func
 691              	HAL_DAC_SetValue:
 692              	.LVL49:
 693              	.LFB297:
 944:stm/stm32l4xx/STM32L4xx_HAL_Driver/Src/stm32l4xx_hal_dac.c **** 
 945:stm/stm32l4xx/STM32L4xx_HAL_Driver/Src/stm32l4xx_hal_dac.c **** /* DAC channel 2 is available on top of DAC channel 1 in */
 946:stm/stm32l4xx/STM32L4xx_HAL_Driver/Src/stm32l4xx_hal_dac.c **** /* STM32L431xx STM32L432xx STM32L433xx STM32L442xx STM32L443xx                         */
 947:stm/stm32l4xx/STM32L4xx_HAL_Driver/Src/stm32l4xx_hal_dac.c **** /* STM32L471xx STM32L475xx STM32L476xx STM32L485xx STM32L486xx STM32L496xx STM32L4A6xx */
 948:stm/stm32l4xx/STM32L4xx_HAL_Driver/Src/stm32l4xx_hal_dac.c **** 
 949:stm/stm32l4xx/STM32L4xx_HAL_Driver/Src/stm32l4xx_hal_dac.c **** /**
 950:stm/stm32l4xx/STM32L4xx_HAL_Driver/Src/stm32l4xx_hal_dac.c ****   * @brief  Handles DAC interrupt request
 951:stm/stm32l4xx/STM32L4xx_HAL_Driver/Src/stm32l4xx_hal_dac.c ****   *         This function uses the interruption of DMA
 952:stm/stm32l4xx/STM32L4xx_HAL_Driver/Src/stm32l4xx_hal_dac.c ****   *         underrun.
 953:stm/stm32l4xx/STM32L4xx_HAL_Driver/Src/stm32l4xx_hal_dac.c ****   * @param  hdac pointer to a DAC_HandleTypeDef structure that contains
 954:stm/stm32l4xx/STM32L4xx_HAL_Driver/Src/stm32l4xx_hal_dac.c ****   *         the configuration information for the specified DAC.
 955:stm/stm32l4xx/STM32L4xx_HAL_Driver/Src/stm32l4xx_hal_dac.c ****   * @retval None
 956:stm/stm32l4xx/STM32L4xx_HAL_Driver/Src/stm32l4xx_hal_dac.c ****   */
 957:stm/stm32l4xx/STM32L4xx_HAL_Driver/Src/stm32l4xx_hal_dac.c **** void HAL_DAC_IRQHandler(DAC_HandleTypeDef *hdac)
 958:stm/stm32l4xx/STM32L4xx_HAL_Driver/Src/stm32l4xx_hal_dac.c **** {
 959:stm/stm32l4xx/STM32L4xx_HAL_Driver/Src/stm32l4xx_hal_dac.c ****   if (__HAL_DAC_GET_IT_SOURCE(hdac, DAC_IT_DMAUDR1))
 960:stm/stm32l4xx/STM32L4xx_HAL_Driver/Src/stm32l4xx_hal_dac.c ****   {
 961:stm/stm32l4xx/STM32L4xx_HAL_Driver/Src/stm32l4xx_hal_dac.c ****     /* Check underrun flag of DAC channel 1 */
 962:stm/stm32l4xx/STM32L4xx_HAL_Driver/Src/stm32l4xx_hal_dac.c ****     if (__HAL_DAC_GET_FLAG(hdac, DAC_FLAG_DMAUDR1))
 963:stm/stm32l4xx/STM32L4xx_HAL_Driver/Src/stm32l4xx_hal_dac.c ****     {
 964:stm/stm32l4xx/STM32L4xx_HAL_Driver/Src/stm32l4xx_hal_dac.c ****       /* Change DAC state to error state */
 965:stm/stm32l4xx/STM32L4xx_HAL_Driver/Src/stm32l4xx_hal_dac.c ****       hdac->State = HAL_DAC_STATE_ERROR;
 966:stm/stm32l4xx/STM32L4xx_HAL_Driver/Src/stm32l4xx_hal_dac.c **** 
 967:stm/stm32l4xx/STM32L4xx_HAL_Driver/Src/stm32l4xx_hal_dac.c ****       /* Set DAC error code to chanel1 DMA underrun error */
 968:stm/stm32l4xx/STM32L4xx_HAL_Driver/Src/stm32l4xx_hal_dac.c ****       SET_BIT(hdac->ErrorCode, HAL_DAC_ERROR_DMAUNDERRUNCH1);
 969:stm/stm32l4xx/STM32L4xx_HAL_Driver/Src/stm32l4xx_hal_dac.c **** 
 970:stm/stm32l4xx/STM32L4xx_HAL_Driver/Src/stm32l4xx_hal_dac.c ****       /* Clear the underrun flag */
 971:stm/stm32l4xx/STM32L4xx_HAL_Driver/Src/stm32l4xx_hal_dac.c ****       __HAL_DAC_CLEAR_FLAG(hdac, DAC_FLAG_DMAUDR1);
 972:stm/stm32l4xx/STM32L4xx_HAL_Driver/Src/stm32l4xx_hal_dac.c **** 
 973:stm/stm32l4xx/STM32L4xx_HAL_Driver/Src/stm32l4xx_hal_dac.c ****       /* Disable the selected DAC channel1 DMA request */
 974:stm/stm32l4xx/STM32L4xx_HAL_Driver/Src/stm32l4xx_hal_dac.c ****       CLEAR_BIT(hdac->Instance->CR, DAC_CR_DMAEN1);
 975:stm/stm32l4xx/STM32L4xx_HAL_Driver/Src/stm32l4xx_hal_dac.c **** 
 976:stm/stm32l4xx/STM32L4xx_HAL_Driver/Src/stm32l4xx_hal_dac.c ****       /* Error callback */
 977:stm/stm32l4xx/STM32L4xx_HAL_Driver/Src/stm32l4xx_hal_dac.c **** #if (USE_HAL_DAC_REGISTER_CALLBACKS == 1)
 978:stm/stm32l4xx/STM32L4xx_HAL_Driver/Src/stm32l4xx_hal_dac.c ****       hdac->DMAUnderrunCallbackCh1(hdac);
 979:stm/stm32l4xx/STM32L4xx_HAL_Driver/Src/stm32l4xx_hal_dac.c **** #else
 980:stm/stm32l4xx/STM32L4xx_HAL_Driver/Src/stm32l4xx_hal_dac.c ****       HAL_DAC_DMAUnderrunCallbackCh1(hdac);
 981:stm/stm32l4xx/STM32L4xx_HAL_Driver/Src/stm32l4xx_hal_dac.c **** #endif /* USE_HAL_DAC_REGISTER_CALLBACKS */
 982:stm/stm32l4xx/STM32L4xx_HAL_Driver/Src/stm32l4xx_hal_dac.c ****     }
 983:stm/stm32l4xx/STM32L4xx_HAL_Driver/Src/stm32l4xx_hal_dac.c ****   }
 984:stm/stm32l4xx/STM32L4xx_HAL_Driver/Src/stm32l4xx_hal_dac.c **** #if defined (STM32L431xx) || defined (STM32L432xx) || defined (STM32L433xx) || defined (STM32L442xx
 985:stm/stm32l4xx/STM32L4xx_HAL_Driver/Src/stm32l4xx_hal_dac.c ****     defined (STM32L471xx) || defined (STM32L475xx) || defined (STM32L476xx) || defined (STM32L485xx
 986:stm/stm32l4xx/STM32L4xx_HAL_Driver/Src/stm32l4xx_hal_dac.c ****     defined (STM32L4P5xx) || defined (STM32L4Q5xx) || \
 987:stm/stm32l4xx/STM32L4xx_HAL_Driver/Src/stm32l4xx_hal_dac.c ****     defined (STM32L4R5xx) || defined (STM32L4R7xx) || defined (STM32L4R9xx) || defined (STM32L4S5xx
 988:stm/stm32l4xx/STM32L4xx_HAL_Driver/Src/stm32l4xx_hal_dac.c ****   if(__HAL_DAC_GET_IT_SOURCE(hdac, DAC_IT_DMAUDR2))
 989:stm/stm32l4xx/STM32L4xx_HAL_Driver/Src/stm32l4xx_hal_dac.c ****   {
 990:stm/stm32l4xx/STM32L4xx_HAL_Driver/Src/stm32l4xx_hal_dac.c ****     /* Check underrun flag of DAC channel 2 */
 991:stm/stm32l4xx/STM32L4xx_HAL_Driver/Src/stm32l4xx_hal_dac.c ****     if (__HAL_DAC_GET_FLAG(hdac, DAC_FLAG_DMAUDR2))
 992:stm/stm32l4xx/STM32L4xx_HAL_Driver/Src/stm32l4xx_hal_dac.c ****     {
 993:stm/stm32l4xx/STM32L4xx_HAL_Driver/Src/stm32l4xx_hal_dac.c ****       /* Change DAC state to error state */
 994:stm/stm32l4xx/STM32L4xx_HAL_Driver/Src/stm32l4xx_hal_dac.c ****       hdac->State = HAL_DAC_STATE_ERROR;
 995:stm/stm32l4xx/STM32L4xx_HAL_Driver/Src/stm32l4xx_hal_dac.c **** 
ARM GAS  /tmp/cc1emfwg.s 			page 32


 996:stm/stm32l4xx/STM32L4xx_HAL_Driver/Src/stm32l4xx_hal_dac.c ****       /* Set DAC error code to channel2 DMA underrun error */
 997:stm/stm32l4xx/STM32L4xx_HAL_Driver/Src/stm32l4xx_hal_dac.c ****       SET_BIT(hdac->ErrorCode, HAL_DAC_ERROR_DMAUNDERRUNCH2);
 998:stm/stm32l4xx/STM32L4xx_HAL_Driver/Src/stm32l4xx_hal_dac.c **** 
 999:stm/stm32l4xx/STM32L4xx_HAL_Driver/Src/stm32l4xx_hal_dac.c ****       /* Clear the underrun flag */
1000:stm/stm32l4xx/STM32L4xx_HAL_Driver/Src/stm32l4xx_hal_dac.c ****       __HAL_DAC_CLEAR_FLAG(hdac, DAC_FLAG_DMAUDR2);
1001:stm/stm32l4xx/STM32L4xx_HAL_Driver/Src/stm32l4xx_hal_dac.c **** 
1002:stm/stm32l4xx/STM32L4xx_HAL_Driver/Src/stm32l4xx_hal_dac.c ****       /* Disable the selected DAC channel2 DMA request */
1003:stm/stm32l4xx/STM32L4xx_HAL_Driver/Src/stm32l4xx_hal_dac.c ****       CLEAR_BIT(hdac->Instance->CR, DAC_CR_DMAEN2);
1004:stm/stm32l4xx/STM32L4xx_HAL_Driver/Src/stm32l4xx_hal_dac.c **** 
1005:stm/stm32l4xx/STM32L4xx_HAL_Driver/Src/stm32l4xx_hal_dac.c ****       /* Error callback */
1006:stm/stm32l4xx/STM32L4xx_HAL_Driver/Src/stm32l4xx_hal_dac.c **** #if (USE_HAL_DAC_REGISTER_CALLBACKS == 1)
1007:stm/stm32l4xx/STM32L4xx_HAL_Driver/Src/stm32l4xx_hal_dac.c ****       hdac->DMAUnderrunCallbackCh2(hdac);
1008:stm/stm32l4xx/STM32L4xx_HAL_Driver/Src/stm32l4xx_hal_dac.c **** #else
1009:stm/stm32l4xx/STM32L4xx_HAL_Driver/Src/stm32l4xx_hal_dac.c ****       HAL_DACEx_DMAUnderrunCallbackCh2(hdac);
1010:stm/stm32l4xx/STM32L4xx_HAL_Driver/Src/stm32l4xx_hal_dac.c **** #endif /* USE_HAL_DAC_REGISTER_CALLBACKS */
1011:stm/stm32l4xx/STM32L4xx_HAL_Driver/Src/stm32l4xx_hal_dac.c ****     }
1012:stm/stm32l4xx/STM32L4xx_HAL_Driver/Src/stm32l4xx_hal_dac.c ****   }
1013:stm/stm32l4xx/STM32L4xx_HAL_Driver/Src/stm32l4xx_hal_dac.c **** #endif  /* STM32L431xx STM32L432xx STM32L433xx STM32L442xx STM32L443xx                         */
1014:stm/stm32l4xx/STM32L4xx_HAL_Driver/Src/stm32l4xx_hal_dac.c ****         /* STM32L471xx STM32L475xx STM32L476xx STM32L485xx STM32L486xx STM32L496xx STM32L4A6xx */
1015:stm/stm32l4xx/STM32L4xx_HAL_Driver/Src/stm32l4xx_hal_dac.c ****         /* STM32L4P5xx STM32L4Q5xx                                                             */
1016:stm/stm32l4xx/STM32L4xx_HAL_Driver/Src/stm32l4xx_hal_dac.c ****         /* STM32L4R5xx STM32L4R7xx STM32L4R9xx STM32L4S5xx STM32L4S7xx STM32L4S9xx             */
1017:stm/stm32l4xx/STM32L4xx_HAL_Driver/Src/stm32l4xx_hal_dac.c **** }
1018:stm/stm32l4xx/STM32L4xx_HAL_Driver/Src/stm32l4xx_hal_dac.c **** 
1019:stm/stm32l4xx/STM32L4xx_HAL_Driver/Src/stm32l4xx_hal_dac.c **** /**
1020:stm/stm32l4xx/STM32L4xx_HAL_Driver/Src/stm32l4xx_hal_dac.c ****   * @brief  Set the specified data holding register value for DAC channel.
1021:stm/stm32l4xx/STM32L4xx_HAL_Driver/Src/stm32l4xx_hal_dac.c ****   * @param  hdac pointer to a DAC_HandleTypeDef structure that contains
1022:stm/stm32l4xx/STM32L4xx_HAL_Driver/Src/stm32l4xx_hal_dac.c ****   *         the configuration information for the specified DAC.
1023:stm/stm32l4xx/STM32L4xx_HAL_Driver/Src/stm32l4xx_hal_dac.c ****   * @param  Channel The selected DAC channel.
1024:stm/stm32l4xx/STM32L4xx_HAL_Driver/Src/stm32l4xx_hal_dac.c ****   *          This parameter can be one of the following values:
1025:stm/stm32l4xx/STM32L4xx_HAL_Driver/Src/stm32l4xx_hal_dac.c ****   *            @arg DAC_CHANNEL_1: DAC Channel1 selected
1026:stm/stm32l4xx/STM32L4xx_HAL_Driver/Src/stm32l4xx_hal_dac.c ****   *            @arg DAC_CHANNEL_2: DAC Channel2 selected
1027:stm/stm32l4xx/STM32L4xx_HAL_Driver/Src/stm32l4xx_hal_dac.c ****   * @param  Alignment Specifies the data alignment.
1028:stm/stm32l4xx/STM32L4xx_HAL_Driver/Src/stm32l4xx_hal_dac.c ****   *          This parameter can be one of the following values:
1029:stm/stm32l4xx/STM32L4xx_HAL_Driver/Src/stm32l4xx_hal_dac.c ****   *            @arg DAC_ALIGN_8B_R: 8bit right data alignment selected
1030:stm/stm32l4xx/STM32L4xx_HAL_Driver/Src/stm32l4xx_hal_dac.c ****   *            @arg DAC_ALIGN_12B_L: 12bit left data alignment selected
1031:stm/stm32l4xx/STM32L4xx_HAL_Driver/Src/stm32l4xx_hal_dac.c ****   *            @arg DAC_ALIGN_12B_R: 12bit right data alignment selected
1032:stm/stm32l4xx/STM32L4xx_HAL_Driver/Src/stm32l4xx_hal_dac.c ****   * @param  Data Data to be loaded in the selected data holding register.
1033:stm/stm32l4xx/STM32L4xx_HAL_Driver/Src/stm32l4xx_hal_dac.c ****   * @retval HAL status
1034:stm/stm32l4xx/STM32L4xx_HAL_Driver/Src/stm32l4xx_hal_dac.c ****   */
1035:stm/stm32l4xx/STM32L4xx_HAL_Driver/Src/stm32l4xx_hal_dac.c **** HAL_StatusTypeDef HAL_DAC_SetValue(DAC_HandleTypeDef *hdac, uint32_t Channel, uint32_t Alignment, u
1036:stm/stm32l4xx/STM32L4xx_HAL_Driver/Src/stm32l4xx_hal_dac.c **** {
 694              		.loc 1 1036 1 view -0
 695              		.cfi_startproc
 696              		@ args = 0, pretend = 0, frame = 8
 697              		@ frame_needed = 0, uses_anonymous_args = 0
 698              		@ link register save eliminated.
 699              		.loc 1 1036 1 is_stmt 0 view .LVU195
 700 0000 10B4     		push	{r4}
 701              	.LCFI12:
 702              		.cfi_def_cfa_offset 4
 703              		.cfi_offset 4, -4
 704 0002 83B0     		sub	sp, sp, #12
 705              	.LCFI13:
 706              		.cfi_def_cfa_offset 16
1037:stm/stm32l4xx/STM32L4xx_HAL_Driver/Src/stm32l4xx_hal_dac.c ****   __IO uint32_t tmp = 0;
 707              		.loc 1 1037 3 is_stmt 1 view .LVU196
 708              		.loc 1 1037 17 is_stmt 0 view .LVU197
ARM GAS  /tmp/cc1emfwg.s 			page 33


 709 0004 0024     		movs	r4, #0
 710 0006 0194     		str	r4, [sp, #4]
1038:stm/stm32l4xx/STM32L4xx_HAL_Driver/Src/stm32l4xx_hal_dac.c **** 
1039:stm/stm32l4xx/STM32L4xx_HAL_Driver/Src/stm32l4xx_hal_dac.c ****   /* Check the parameters */
1040:stm/stm32l4xx/STM32L4xx_HAL_Driver/Src/stm32l4xx_hal_dac.c ****   assert_param(IS_DAC_CHANNEL(Channel));
 711              		.loc 1 1040 3 is_stmt 1 view .LVU198
1041:stm/stm32l4xx/STM32L4xx_HAL_Driver/Src/stm32l4xx_hal_dac.c ****   assert_param(IS_DAC_ALIGN(Alignment));
 712              		.loc 1 1041 3 view .LVU199
1042:stm/stm32l4xx/STM32L4xx_HAL_Driver/Src/stm32l4xx_hal_dac.c ****   assert_param(IS_DAC_DATA(Data));
 713              		.loc 1 1042 3 view .LVU200
1043:stm/stm32l4xx/STM32L4xx_HAL_Driver/Src/stm32l4xx_hal_dac.c **** 
1044:stm/stm32l4xx/STM32L4xx_HAL_Driver/Src/stm32l4xx_hal_dac.c ****   tmp = (uint32_t)hdac->Instance;
 714              		.loc 1 1044 3 view .LVU201
 715              		.loc 1 1044 23 is_stmt 0 view .LVU202
 716 0008 0068     		ldr	r0, [r0]
 717              	.LVL50:
 718              		.loc 1 1044 7 view .LVU203
 719 000a 0190     		str	r0, [sp, #4]
1045:stm/stm32l4xx/STM32L4xx_HAL_Driver/Src/stm32l4xx_hal_dac.c ****   if (Channel == DAC_CHANNEL_1)
 720              		.loc 1 1045 3 is_stmt 1 view .LVU204
 721              		.loc 1 1045 6 is_stmt 0 view .LVU205
 722 000c 51B9     		cbnz	r1, .L55
1046:stm/stm32l4xx/STM32L4xx_HAL_Driver/Src/stm32l4xx_hal_dac.c ****   {
1047:stm/stm32l4xx/STM32L4xx_HAL_Driver/Src/stm32l4xx_hal_dac.c ****     tmp += DAC_DHR12R1_ALIGNMENT(Alignment);
 723              		.loc 1 1047 5 is_stmt 1 view .LVU206
 724              		.loc 1 1047 9 is_stmt 0 view .LVU207
 725 000e 0199     		ldr	r1, [sp, #4]
 726              	.LVL51:
 727              		.loc 1 1047 9 view .LVU208
 728 0010 0A44     		add	r2, r2, r1
 729              	.LVL52:
 730              		.loc 1 1047 9 view .LVU209
 731 0012 0832     		adds	r2, r2, #8
 732 0014 0192     		str	r2, [sp, #4]
 733              	.L56:
1048:stm/stm32l4xx/STM32L4xx_HAL_Driver/Src/stm32l4xx_hal_dac.c ****   }
1049:stm/stm32l4xx/STM32L4xx_HAL_Driver/Src/stm32l4xx_hal_dac.c ****   else
1050:stm/stm32l4xx/STM32L4xx_HAL_Driver/Src/stm32l4xx_hal_dac.c ****   {
1051:stm/stm32l4xx/STM32L4xx_HAL_Driver/Src/stm32l4xx_hal_dac.c ****     tmp += DAC_DHR12R2_ALIGNMENT(Alignment);
1052:stm/stm32l4xx/STM32L4xx_HAL_Driver/Src/stm32l4xx_hal_dac.c ****   }
1053:stm/stm32l4xx/STM32L4xx_HAL_Driver/Src/stm32l4xx_hal_dac.c **** 
1054:stm/stm32l4xx/STM32L4xx_HAL_Driver/Src/stm32l4xx_hal_dac.c ****   /* Set the DAC channel selected data holding register */
1055:stm/stm32l4xx/STM32L4xx_HAL_Driver/Src/stm32l4xx_hal_dac.c ****   *(__IO uint32_t *) tmp = Data;
 734              		.loc 1 1055 3 is_stmt 1 view .LVU210
 735              		.loc 1 1055 4 is_stmt 0 view .LVU211
 736 0016 019A     		ldr	r2, [sp, #4]
 737              		.loc 1 1055 26 view .LVU212
 738 0018 1360     		str	r3, [r2]
1056:stm/stm32l4xx/STM32L4xx_HAL_Driver/Src/stm32l4xx_hal_dac.c **** 
1057:stm/stm32l4xx/STM32L4xx_HAL_Driver/Src/stm32l4xx_hal_dac.c ****   /* Return function status */
1058:stm/stm32l4xx/STM32L4xx_HAL_Driver/Src/stm32l4xx_hal_dac.c ****   return HAL_OK;
 739              		.loc 1 1058 3 is_stmt 1 view .LVU213
1059:stm/stm32l4xx/STM32L4xx_HAL_Driver/Src/stm32l4xx_hal_dac.c **** }
 740              		.loc 1 1059 1 is_stmt 0 view .LVU214
 741 001a 0020     		movs	r0, #0
 742 001c 03B0     		add	sp, sp, #12
 743              	.LCFI14:
ARM GAS  /tmp/cc1emfwg.s 			page 34


 744              		.cfi_remember_state
 745              		.cfi_def_cfa_offset 4
 746              		@ sp needed
 747 001e 5DF8044B 		ldr	r4, [sp], #4
 748              	.LCFI15:
 749              		.cfi_restore 4
 750              		.cfi_def_cfa_offset 0
 751 0022 7047     		bx	lr
 752              	.LVL53:
 753              	.L55:
 754              	.LCFI16:
 755              		.cfi_restore_state
1051:stm/stm32l4xx/STM32L4xx_HAL_Driver/Src/stm32l4xx_hal_dac.c ****   }
 756              		.loc 1 1051 5 is_stmt 1 view .LVU215
1051:stm/stm32l4xx/STM32L4xx_HAL_Driver/Src/stm32l4xx_hal_dac.c ****   }
 757              		.loc 1 1051 9 is_stmt 0 view .LVU216
 758 0024 0199     		ldr	r1, [sp, #4]
 759              	.LVL54:
1051:stm/stm32l4xx/STM32L4xx_HAL_Driver/Src/stm32l4xx_hal_dac.c ****   }
 760              		.loc 1 1051 9 view .LVU217
 761 0026 0A44     		add	r2, r2, r1
 762              	.LVL55:
1051:stm/stm32l4xx/STM32L4xx_HAL_Driver/Src/stm32l4xx_hal_dac.c ****   }
 763              		.loc 1 1051 9 view .LVU218
 764 0028 1432     		adds	r2, r2, #20
 765 002a 0192     		str	r2, [sp, #4]
 766 002c F3E7     		b	.L56
 767              		.cfi_endproc
 768              	.LFE297:
 770              		.section	.text.HAL_DAC_ConvCpltCallbackCh1,"ax",%progbits
 771              		.align	1
 772              		.weak	HAL_DAC_ConvCpltCallbackCh1
 773              		.syntax unified
 774              		.thumb
 775              		.thumb_func
 777              	HAL_DAC_ConvCpltCallbackCh1:
 778              	.LVL56:
 779              	.LFB298:
1060:stm/stm32l4xx/STM32L4xx_HAL_Driver/Src/stm32l4xx_hal_dac.c **** 
1061:stm/stm32l4xx/STM32L4xx_HAL_Driver/Src/stm32l4xx_hal_dac.c **** /**
1062:stm/stm32l4xx/STM32L4xx_HAL_Driver/Src/stm32l4xx_hal_dac.c ****   * @brief  Conversion complete callback in non-blocking mode for Channel1
1063:stm/stm32l4xx/STM32L4xx_HAL_Driver/Src/stm32l4xx_hal_dac.c ****   * @param  hdac pointer to a DAC_HandleTypeDef structure that contains
1064:stm/stm32l4xx/STM32L4xx_HAL_Driver/Src/stm32l4xx_hal_dac.c ****   *         the configuration information for the specified DAC.
1065:stm/stm32l4xx/STM32L4xx_HAL_Driver/Src/stm32l4xx_hal_dac.c ****   * @retval None
1066:stm/stm32l4xx/STM32L4xx_HAL_Driver/Src/stm32l4xx_hal_dac.c ****   */
1067:stm/stm32l4xx/STM32L4xx_HAL_Driver/Src/stm32l4xx_hal_dac.c **** __weak void HAL_DAC_ConvCpltCallbackCh1(DAC_HandleTypeDef *hdac)
1068:stm/stm32l4xx/STM32L4xx_HAL_Driver/Src/stm32l4xx_hal_dac.c **** {
 780              		.loc 1 1068 1 is_stmt 1 view -0
 781              		.cfi_startproc
 782              		@ args = 0, pretend = 0, frame = 0
 783              		@ frame_needed = 0, uses_anonymous_args = 0
 784              		@ link register save eliminated.
1069:stm/stm32l4xx/STM32L4xx_HAL_Driver/Src/stm32l4xx_hal_dac.c ****   /* Prevent unused argument(s) compilation warning */
1070:stm/stm32l4xx/STM32L4xx_HAL_Driver/Src/stm32l4xx_hal_dac.c ****   UNUSED(hdac);
 785              		.loc 1 1070 3 view .LVU220
1071:stm/stm32l4xx/STM32L4xx_HAL_Driver/Src/stm32l4xx_hal_dac.c **** 
1072:stm/stm32l4xx/STM32L4xx_HAL_Driver/Src/stm32l4xx_hal_dac.c ****   /* NOTE : This function should not be modified, when the callback is needed,
ARM GAS  /tmp/cc1emfwg.s 			page 35


1073:stm/stm32l4xx/STM32L4xx_HAL_Driver/Src/stm32l4xx_hal_dac.c ****             the HAL_DAC_ConvCpltCallbackCh1 could be implemented in the user file
1074:stm/stm32l4xx/STM32L4xx_HAL_Driver/Src/stm32l4xx_hal_dac.c ****    */
1075:stm/stm32l4xx/STM32L4xx_HAL_Driver/Src/stm32l4xx_hal_dac.c **** }
 786              		.loc 1 1075 1 is_stmt 0 view .LVU221
 787 0000 7047     		bx	lr
 788              		.cfi_endproc
 789              	.LFE298:
 791              		.section	.text.DAC_DMAConvCpltCh1,"ax",%progbits
 792              		.align	1
 793              		.global	DAC_DMAConvCpltCh1
 794              		.syntax unified
 795              		.thumb
 796              		.thumb_func
 798              	DAC_DMAConvCpltCh1:
 799              	.LVL57:
 800              	.LFB306:
1076:stm/stm32l4xx/STM32L4xx_HAL_Driver/Src/stm32l4xx_hal_dac.c **** 
1077:stm/stm32l4xx/STM32L4xx_HAL_Driver/Src/stm32l4xx_hal_dac.c **** /**
1078:stm/stm32l4xx/STM32L4xx_HAL_Driver/Src/stm32l4xx_hal_dac.c ****   * @brief  Conversion half DMA transfer callback in non-blocking mode for Channel1
1079:stm/stm32l4xx/STM32L4xx_HAL_Driver/Src/stm32l4xx_hal_dac.c ****   * @param  hdac pointer to a DAC_HandleTypeDef structure that contains
1080:stm/stm32l4xx/STM32L4xx_HAL_Driver/Src/stm32l4xx_hal_dac.c ****   *         the configuration information for the specified DAC.
1081:stm/stm32l4xx/STM32L4xx_HAL_Driver/Src/stm32l4xx_hal_dac.c ****   * @retval None
1082:stm/stm32l4xx/STM32L4xx_HAL_Driver/Src/stm32l4xx_hal_dac.c ****   */
1083:stm/stm32l4xx/STM32L4xx_HAL_Driver/Src/stm32l4xx_hal_dac.c **** __weak void HAL_DAC_ConvHalfCpltCallbackCh1(DAC_HandleTypeDef *hdac)
1084:stm/stm32l4xx/STM32L4xx_HAL_Driver/Src/stm32l4xx_hal_dac.c **** {
1085:stm/stm32l4xx/STM32L4xx_HAL_Driver/Src/stm32l4xx_hal_dac.c ****   /* Prevent unused argument(s) compilation warning */
1086:stm/stm32l4xx/STM32L4xx_HAL_Driver/Src/stm32l4xx_hal_dac.c ****   UNUSED(hdac);
1087:stm/stm32l4xx/STM32L4xx_HAL_Driver/Src/stm32l4xx_hal_dac.c **** 
1088:stm/stm32l4xx/STM32L4xx_HAL_Driver/Src/stm32l4xx_hal_dac.c ****   /* NOTE : This function should not be modified, when the callback is needed,
1089:stm/stm32l4xx/STM32L4xx_HAL_Driver/Src/stm32l4xx_hal_dac.c ****             the HAL_DAC_ConvHalfCpltCallbackCh1 could be implemented in the user file
1090:stm/stm32l4xx/STM32L4xx_HAL_Driver/Src/stm32l4xx_hal_dac.c ****    */
1091:stm/stm32l4xx/STM32L4xx_HAL_Driver/Src/stm32l4xx_hal_dac.c **** }
1092:stm/stm32l4xx/STM32L4xx_HAL_Driver/Src/stm32l4xx_hal_dac.c **** 
1093:stm/stm32l4xx/STM32L4xx_HAL_Driver/Src/stm32l4xx_hal_dac.c **** /**
1094:stm/stm32l4xx/STM32L4xx_HAL_Driver/Src/stm32l4xx_hal_dac.c ****   * @brief  Error DAC callback for Channel1.
1095:stm/stm32l4xx/STM32L4xx_HAL_Driver/Src/stm32l4xx_hal_dac.c ****   * @param  hdac pointer to a DAC_HandleTypeDef structure that contains
1096:stm/stm32l4xx/STM32L4xx_HAL_Driver/Src/stm32l4xx_hal_dac.c ****   *         the configuration information for the specified DAC.
1097:stm/stm32l4xx/STM32L4xx_HAL_Driver/Src/stm32l4xx_hal_dac.c ****   * @retval None
1098:stm/stm32l4xx/STM32L4xx_HAL_Driver/Src/stm32l4xx_hal_dac.c ****   */
1099:stm/stm32l4xx/STM32L4xx_HAL_Driver/Src/stm32l4xx_hal_dac.c **** __weak void HAL_DAC_ErrorCallbackCh1(DAC_HandleTypeDef *hdac)
1100:stm/stm32l4xx/STM32L4xx_HAL_Driver/Src/stm32l4xx_hal_dac.c **** {
1101:stm/stm32l4xx/STM32L4xx_HAL_Driver/Src/stm32l4xx_hal_dac.c ****   /* Prevent unused argument(s) compilation warning */
1102:stm/stm32l4xx/STM32L4xx_HAL_Driver/Src/stm32l4xx_hal_dac.c ****   UNUSED(hdac);
1103:stm/stm32l4xx/STM32L4xx_HAL_Driver/Src/stm32l4xx_hal_dac.c **** 
1104:stm/stm32l4xx/STM32L4xx_HAL_Driver/Src/stm32l4xx_hal_dac.c ****   /* NOTE : This function should not be modified, when the callback is needed,
1105:stm/stm32l4xx/STM32L4xx_HAL_Driver/Src/stm32l4xx_hal_dac.c ****             the HAL_DAC_ErrorCallbackCh1 could be implemented in the user file
1106:stm/stm32l4xx/STM32L4xx_HAL_Driver/Src/stm32l4xx_hal_dac.c ****    */
1107:stm/stm32l4xx/STM32L4xx_HAL_Driver/Src/stm32l4xx_hal_dac.c **** }
1108:stm/stm32l4xx/STM32L4xx_HAL_Driver/Src/stm32l4xx_hal_dac.c **** 
1109:stm/stm32l4xx/STM32L4xx_HAL_Driver/Src/stm32l4xx_hal_dac.c **** /**
1110:stm/stm32l4xx/STM32L4xx_HAL_Driver/Src/stm32l4xx_hal_dac.c ****   * @brief  DMA underrun DAC callback for channel1.
1111:stm/stm32l4xx/STM32L4xx_HAL_Driver/Src/stm32l4xx_hal_dac.c ****   * @param  hdac pointer to a DAC_HandleTypeDef structure that contains
1112:stm/stm32l4xx/STM32L4xx_HAL_Driver/Src/stm32l4xx_hal_dac.c ****   *         the configuration information for the specified DAC.
1113:stm/stm32l4xx/STM32L4xx_HAL_Driver/Src/stm32l4xx_hal_dac.c ****   * @retval None
1114:stm/stm32l4xx/STM32L4xx_HAL_Driver/Src/stm32l4xx_hal_dac.c ****   */
1115:stm/stm32l4xx/STM32L4xx_HAL_Driver/Src/stm32l4xx_hal_dac.c **** __weak void HAL_DAC_DMAUnderrunCallbackCh1(DAC_HandleTypeDef *hdac)
1116:stm/stm32l4xx/STM32L4xx_HAL_Driver/Src/stm32l4xx_hal_dac.c **** {
ARM GAS  /tmp/cc1emfwg.s 			page 36


1117:stm/stm32l4xx/STM32L4xx_HAL_Driver/Src/stm32l4xx_hal_dac.c ****   /* Prevent unused argument(s) compilation warning */
1118:stm/stm32l4xx/STM32L4xx_HAL_Driver/Src/stm32l4xx_hal_dac.c ****   UNUSED(hdac);
1119:stm/stm32l4xx/STM32L4xx_HAL_Driver/Src/stm32l4xx_hal_dac.c **** 
1120:stm/stm32l4xx/STM32L4xx_HAL_Driver/Src/stm32l4xx_hal_dac.c ****   /* NOTE : This function should not be modified, when the callback is needed,
1121:stm/stm32l4xx/STM32L4xx_HAL_Driver/Src/stm32l4xx_hal_dac.c ****             the HAL_DAC_DMAUnderrunCallbackCh1 could be implemented in the user file
1122:stm/stm32l4xx/STM32L4xx_HAL_Driver/Src/stm32l4xx_hal_dac.c ****    */
1123:stm/stm32l4xx/STM32L4xx_HAL_Driver/Src/stm32l4xx_hal_dac.c **** }
1124:stm/stm32l4xx/STM32L4xx_HAL_Driver/Src/stm32l4xx_hal_dac.c **** 
1125:stm/stm32l4xx/STM32L4xx_HAL_Driver/Src/stm32l4xx_hal_dac.c **** /**
1126:stm/stm32l4xx/STM32L4xx_HAL_Driver/Src/stm32l4xx_hal_dac.c ****   * @}
1127:stm/stm32l4xx/STM32L4xx_HAL_Driver/Src/stm32l4xx_hal_dac.c ****   */
1128:stm/stm32l4xx/STM32L4xx_HAL_Driver/Src/stm32l4xx_hal_dac.c **** 
1129:stm/stm32l4xx/STM32L4xx_HAL_Driver/Src/stm32l4xx_hal_dac.c **** /** @defgroup DAC_Exported_Functions_Group3 Peripheral Control functions
1130:stm/stm32l4xx/STM32L4xx_HAL_Driver/Src/stm32l4xx_hal_dac.c ****  *  @brief    Peripheral Control functions
1131:stm/stm32l4xx/STM32L4xx_HAL_Driver/Src/stm32l4xx_hal_dac.c ****  *
1132:stm/stm32l4xx/STM32L4xx_HAL_Driver/Src/stm32l4xx_hal_dac.c **** @verbatim
1133:stm/stm32l4xx/STM32L4xx_HAL_Driver/Src/stm32l4xx_hal_dac.c ****   ==============================================================================
1134:stm/stm32l4xx/STM32L4xx_HAL_Driver/Src/stm32l4xx_hal_dac.c ****              ##### Peripheral Control functions #####
1135:stm/stm32l4xx/STM32L4xx_HAL_Driver/Src/stm32l4xx_hal_dac.c ****   ==============================================================================
1136:stm/stm32l4xx/STM32L4xx_HAL_Driver/Src/stm32l4xx_hal_dac.c ****     [..]  This section provides functions allowing to:
1137:stm/stm32l4xx/STM32L4xx_HAL_Driver/Src/stm32l4xx_hal_dac.c ****       (+) Configure channels.
1138:stm/stm32l4xx/STM32L4xx_HAL_Driver/Src/stm32l4xx_hal_dac.c ****       (+) Set the specified data holding register value for DAC channel.
1139:stm/stm32l4xx/STM32L4xx_HAL_Driver/Src/stm32l4xx_hal_dac.c **** 
1140:stm/stm32l4xx/STM32L4xx_HAL_Driver/Src/stm32l4xx_hal_dac.c **** @endverbatim
1141:stm/stm32l4xx/STM32L4xx_HAL_Driver/Src/stm32l4xx_hal_dac.c ****   * @{
1142:stm/stm32l4xx/STM32L4xx_HAL_Driver/Src/stm32l4xx_hal_dac.c ****   */
1143:stm/stm32l4xx/STM32L4xx_HAL_Driver/Src/stm32l4xx_hal_dac.c **** 
1144:stm/stm32l4xx/STM32L4xx_HAL_Driver/Src/stm32l4xx_hal_dac.c **** /**
1145:stm/stm32l4xx/STM32L4xx_HAL_Driver/Src/stm32l4xx_hal_dac.c ****   * @brief  Returns the last data output value of the selected DAC channel.
1146:stm/stm32l4xx/STM32L4xx_HAL_Driver/Src/stm32l4xx_hal_dac.c ****   * @param  hdac pointer to a DAC_HandleTypeDef structure that contains
1147:stm/stm32l4xx/STM32L4xx_HAL_Driver/Src/stm32l4xx_hal_dac.c ****   *         the configuration information for the specified DAC.
1148:stm/stm32l4xx/STM32L4xx_HAL_Driver/Src/stm32l4xx_hal_dac.c ****   * @param  Channel The selected DAC channel.
1149:stm/stm32l4xx/STM32L4xx_HAL_Driver/Src/stm32l4xx_hal_dac.c ****   *          This parameter can be one of the following values:
1150:stm/stm32l4xx/STM32L4xx_HAL_Driver/Src/stm32l4xx_hal_dac.c ****   *            @arg DAC_CHANNEL_1: DAC Channel1 selected
1151:stm/stm32l4xx/STM32L4xx_HAL_Driver/Src/stm32l4xx_hal_dac.c ****   *            @arg DAC_CHANNEL_2: DAC Channel2 selected
1152:stm/stm32l4xx/STM32L4xx_HAL_Driver/Src/stm32l4xx_hal_dac.c ****   * @retval The selected DAC channel data output value.
1153:stm/stm32l4xx/STM32L4xx_HAL_Driver/Src/stm32l4xx_hal_dac.c ****   */
1154:stm/stm32l4xx/STM32L4xx_HAL_Driver/Src/stm32l4xx_hal_dac.c **** uint32_t HAL_DAC_GetValue(DAC_HandleTypeDef *hdac, uint32_t Channel)
1155:stm/stm32l4xx/STM32L4xx_HAL_Driver/Src/stm32l4xx_hal_dac.c **** {
1156:stm/stm32l4xx/STM32L4xx_HAL_Driver/Src/stm32l4xx_hal_dac.c ****   /* Check the parameters */
1157:stm/stm32l4xx/STM32L4xx_HAL_Driver/Src/stm32l4xx_hal_dac.c ****   assert_param(IS_DAC_CHANNEL(Channel));
1158:stm/stm32l4xx/STM32L4xx_HAL_Driver/Src/stm32l4xx_hal_dac.c **** 
1159:stm/stm32l4xx/STM32L4xx_HAL_Driver/Src/stm32l4xx_hal_dac.c ****   /* Returns the DAC channel data output register value */
1160:stm/stm32l4xx/STM32L4xx_HAL_Driver/Src/stm32l4xx_hal_dac.c **** #if defined (STM32L451xx) || defined (STM32L452xx) || defined (STM32L462xx)
1161:stm/stm32l4xx/STM32L4xx_HAL_Driver/Src/stm32l4xx_hal_dac.c ****   /* Prevent unused argument(s) compilation warning if no assert_param check */
1162:stm/stm32l4xx/STM32L4xx_HAL_Driver/Src/stm32l4xx_hal_dac.c ****   UNUSED(Channel);
1163:stm/stm32l4xx/STM32L4xx_HAL_Driver/Src/stm32l4xx_hal_dac.c **** 
1164:stm/stm32l4xx/STM32L4xx_HAL_Driver/Src/stm32l4xx_hal_dac.c ****   return hdac->Instance->DOR1;
1165:stm/stm32l4xx/STM32L4xx_HAL_Driver/Src/stm32l4xx_hal_dac.c **** #endif /* STM32L451xx STM32L452xx STM32L462xx */
1166:stm/stm32l4xx/STM32L4xx_HAL_Driver/Src/stm32l4xx_hal_dac.c **** 
1167:stm/stm32l4xx/STM32L4xx_HAL_Driver/Src/stm32l4xx_hal_dac.c **** #if defined (STM32L431xx) || defined (STM32L432xx) || defined (STM32L433xx) || defined (STM32L442xx
1168:stm/stm32l4xx/STM32L4xx_HAL_Driver/Src/stm32l4xx_hal_dac.c ****     defined (STM32L471xx) || defined (STM32L475xx) || defined (STM32L476xx) || defined (STM32L485xx
1169:stm/stm32l4xx/STM32L4xx_HAL_Driver/Src/stm32l4xx_hal_dac.c ****     defined (STM32L4P5xx) || defined (STM32L4Q5xx) || \
1170:stm/stm32l4xx/STM32L4xx_HAL_Driver/Src/stm32l4xx_hal_dac.c ****     defined (STM32L4R5xx) || defined (STM32L4R7xx) || defined (STM32L4R9xx) || defined (STM32L4S5xx
1171:stm/stm32l4xx/STM32L4xx_HAL_Driver/Src/stm32l4xx_hal_dac.c ****   if(Channel == DAC_CHANNEL_1)
1172:stm/stm32l4xx/STM32L4xx_HAL_Driver/Src/stm32l4xx_hal_dac.c ****   {
1173:stm/stm32l4xx/STM32L4xx_HAL_Driver/Src/stm32l4xx_hal_dac.c ****     return hdac->Instance->DOR1;
ARM GAS  /tmp/cc1emfwg.s 			page 37


1174:stm/stm32l4xx/STM32L4xx_HAL_Driver/Src/stm32l4xx_hal_dac.c ****   }
1175:stm/stm32l4xx/STM32L4xx_HAL_Driver/Src/stm32l4xx_hal_dac.c ****   else
1176:stm/stm32l4xx/STM32L4xx_HAL_Driver/Src/stm32l4xx_hal_dac.c ****   {
1177:stm/stm32l4xx/STM32L4xx_HAL_Driver/Src/stm32l4xx_hal_dac.c ****     return hdac->Instance->DOR2;
1178:stm/stm32l4xx/STM32L4xx_HAL_Driver/Src/stm32l4xx_hal_dac.c ****   }
1179:stm/stm32l4xx/STM32L4xx_HAL_Driver/Src/stm32l4xx_hal_dac.c **** #endif  /* STM32L431xx STM32L432xx STM32L433xx STM32L442xx STM32L443xx                         */
1180:stm/stm32l4xx/STM32L4xx_HAL_Driver/Src/stm32l4xx_hal_dac.c ****         /* STM32L471xx STM32L475xx STM32L476xx STM32L485xx STM32L486xx STM32L496xx STM32L4A6xx */
1181:stm/stm32l4xx/STM32L4xx_HAL_Driver/Src/stm32l4xx_hal_dac.c ****         /* STM32L4P5xx STM32L4Q5xx                                                             */
1182:stm/stm32l4xx/STM32L4xx_HAL_Driver/Src/stm32l4xx_hal_dac.c ****         /* STM32L4R5xx STM32L4R7xx STM32L4R9xx STM32L4S5xx STM32L4S7xx STM32L4S9xx             */
1183:stm/stm32l4xx/STM32L4xx_HAL_Driver/Src/stm32l4xx_hal_dac.c **** }
1184:stm/stm32l4xx/STM32L4xx_HAL_Driver/Src/stm32l4xx_hal_dac.c **** 
1185:stm/stm32l4xx/STM32L4xx_HAL_Driver/Src/stm32l4xx_hal_dac.c **** /**
1186:stm/stm32l4xx/STM32L4xx_HAL_Driver/Src/stm32l4xx_hal_dac.c ****   * @brief  Configures the selected DAC channel.
1187:stm/stm32l4xx/STM32L4xx_HAL_Driver/Src/stm32l4xx_hal_dac.c ****   * @note   By calling this function, the high frequency interface mode (HFSEL bits)
1188:stm/stm32l4xx/STM32L4xx_HAL_Driver/Src/stm32l4xx_hal_dac.c ****   *         will be set. This parameter scope is the DAC instance. As the function
1189:stm/stm32l4xx/STM32L4xx_HAL_Driver/Src/stm32l4xx_hal_dac.c ****   *         is called for each channel, the @ref DAC_HighFrequency of @arg sConfig
1190:stm/stm32l4xx/STM32L4xx_HAL_Driver/Src/stm32l4xx_hal_dac.c ****   *         must be the same at each call.
1191:stm/stm32l4xx/STM32L4xx_HAL_Driver/Src/stm32l4xx_hal_dac.c ****   *         (or DAC_HIGH_FREQUENCY_INTERFACE_MODE_AUTOMATIC self detect).
1192:stm/stm32l4xx/STM32L4xx_HAL_Driver/Src/stm32l4xx_hal_dac.c ****   * @param  hdac pointer to a DAC_HandleTypeDef structure that contains
1193:stm/stm32l4xx/STM32L4xx_HAL_Driver/Src/stm32l4xx_hal_dac.c ****   *         the configuration information for the specified DAC.
1194:stm/stm32l4xx/STM32L4xx_HAL_Driver/Src/stm32l4xx_hal_dac.c ****   * @param  sConfig DAC configuration structure.
1195:stm/stm32l4xx/STM32L4xx_HAL_Driver/Src/stm32l4xx_hal_dac.c ****   * @param  Channel The selected DAC channel.
1196:stm/stm32l4xx/STM32L4xx_HAL_Driver/Src/stm32l4xx_hal_dac.c ****   *          This parameter can be one of the following values:
1197:stm/stm32l4xx/STM32L4xx_HAL_Driver/Src/stm32l4xx_hal_dac.c ****   *            @arg DAC_CHANNEL_1: DAC Channel1 selected
1198:stm/stm32l4xx/STM32L4xx_HAL_Driver/Src/stm32l4xx_hal_dac.c ****   *            @arg DAC_CHANNEL_2: DAC Channel2 selected (Whenever present)
1199:stm/stm32l4xx/STM32L4xx_HAL_Driver/Src/stm32l4xx_hal_dac.c ****   * @retval HAL status
1200:stm/stm32l4xx/STM32L4xx_HAL_Driver/Src/stm32l4xx_hal_dac.c ****   */
1201:stm/stm32l4xx/STM32L4xx_HAL_Driver/Src/stm32l4xx_hal_dac.c **** HAL_StatusTypeDef HAL_DAC_ConfigChannel(DAC_HandleTypeDef *hdac, DAC_ChannelConfTypeDef *sConfig, u
1202:stm/stm32l4xx/STM32L4xx_HAL_Driver/Src/stm32l4xx_hal_dac.c **** {
1203:stm/stm32l4xx/STM32L4xx_HAL_Driver/Src/stm32l4xx_hal_dac.c ****   uint32_t tmpreg1;
1204:stm/stm32l4xx/STM32L4xx_HAL_Driver/Src/stm32l4xx_hal_dac.c ****   uint32_t tmpreg2;
1205:stm/stm32l4xx/STM32L4xx_HAL_Driver/Src/stm32l4xx_hal_dac.c ****   uint32_t tickstart = 0U;
1206:stm/stm32l4xx/STM32L4xx_HAL_Driver/Src/stm32l4xx_hal_dac.c **** #if defined (STM32L4P5xx) || defined (STM32L4Q5xx) || defined (STM32L4R5xx) || defined (STM32L4R7xx
1207:stm/stm32l4xx/STM32L4xx_HAL_Driver/Src/stm32l4xx_hal_dac.c ****   uint32_t hclkfreq;
1208:stm/stm32l4xx/STM32L4xx_HAL_Driver/Src/stm32l4xx_hal_dac.c **** #endif /* STM32L4P5xx STM32L4Q5xx STM32L4R5xx STM32L4R7xx STM32L4R9xx STM32L4S5xx STM32L4S7xx STM32
1209:stm/stm32l4xx/STM32L4xx_HAL_Driver/Src/stm32l4xx_hal_dac.c **** 
1210:stm/stm32l4xx/STM32L4xx_HAL_Driver/Src/stm32l4xx_hal_dac.c ****   /* Check the DAC parameters */
1211:stm/stm32l4xx/STM32L4xx_HAL_Driver/Src/stm32l4xx_hal_dac.c **** #if defined (STM32L4P5xx) || defined (STM32L4Q5xx) || defined (STM32L4R5xx) || defined (STM32L4R7xx
1212:stm/stm32l4xx/STM32L4xx_HAL_Driver/Src/stm32l4xx_hal_dac.c ****   assert_param(IS_DAC_HIGH_FREQUENCY_MODE(sConfig->DAC_HighFrequency));
1213:stm/stm32l4xx/STM32L4xx_HAL_Driver/Src/stm32l4xx_hal_dac.c **** #endif /* STM32L4P5xx STM32L4Q5xx STM32L4R5xx STM32L4R7xx STM32L4R9xx STM32L4S5xx STM32L4S7xx STM32
1214:stm/stm32l4xx/STM32L4xx_HAL_Driver/Src/stm32l4xx_hal_dac.c ****   assert_param(IS_DAC_TRIGGER(sConfig->DAC_Trigger));
1215:stm/stm32l4xx/STM32L4xx_HAL_Driver/Src/stm32l4xx_hal_dac.c ****   assert_param(IS_DAC_OUTPUT_BUFFER_STATE(sConfig->DAC_OutputBuffer));
1216:stm/stm32l4xx/STM32L4xx_HAL_Driver/Src/stm32l4xx_hal_dac.c ****   assert_param(IS_DAC_CHIP_CONNECTION(sConfig->DAC_ConnectOnChipPeripheral));
1217:stm/stm32l4xx/STM32L4xx_HAL_Driver/Src/stm32l4xx_hal_dac.c ****   assert_param(IS_DAC_TRIMMING(sConfig->DAC_UserTrimming));
1218:stm/stm32l4xx/STM32L4xx_HAL_Driver/Src/stm32l4xx_hal_dac.c ****   if ((sConfig->DAC_UserTrimming) == DAC_TRIMMING_USER)
1219:stm/stm32l4xx/STM32L4xx_HAL_Driver/Src/stm32l4xx_hal_dac.c ****   {
1220:stm/stm32l4xx/STM32L4xx_HAL_Driver/Src/stm32l4xx_hal_dac.c ****     assert_param(IS_DAC_TRIMMINGVALUE(sConfig->DAC_TrimmingValue));
1221:stm/stm32l4xx/STM32L4xx_HAL_Driver/Src/stm32l4xx_hal_dac.c ****   }
1222:stm/stm32l4xx/STM32L4xx_HAL_Driver/Src/stm32l4xx_hal_dac.c ****   assert_param(IS_DAC_SAMPLEANDHOLD(sConfig->DAC_SampleAndHold));
1223:stm/stm32l4xx/STM32L4xx_HAL_Driver/Src/stm32l4xx_hal_dac.c ****   if ((sConfig->DAC_SampleAndHold) == DAC_SAMPLEANDHOLD_ENABLE)
1224:stm/stm32l4xx/STM32L4xx_HAL_Driver/Src/stm32l4xx_hal_dac.c ****   {
1225:stm/stm32l4xx/STM32L4xx_HAL_Driver/Src/stm32l4xx_hal_dac.c ****     assert_param(IS_DAC_SAMPLETIME(sConfig->DAC_SampleAndHoldConfig.DAC_SampleTime));
1226:stm/stm32l4xx/STM32L4xx_HAL_Driver/Src/stm32l4xx_hal_dac.c ****     assert_param(IS_DAC_HOLDTIME(sConfig->DAC_SampleAndHoldConfig.DAC_HoldTime));
1227:stm/stm32l4xx/STM32L4xx_HAL_Driver/Src/stm32l4xx_hal_dac.c ****     assert_param(IS_DAC_REFRESHTIME(sConfig->DAC_SampleAndHoldConfig.DAC_RefreshTime));
1228:stm/stm32l4xx/STM32L4xx_HAL_Driver/Src/stm32l4xx_hal_dac.c ****   }
1229:stm/stm32l4xx/STM32L4xx_HAL_Driver/Src/stm32l4xx_hal_dac.c ****   assert_param(IS_DAC_CHANNEL(Channel));
1230:stm/stm32l4xx/STM32L4xx_HAL_Driver/Src/stm32l4xx_hal_dac.c **** 
ARM GAS  /tmp/cc1emfwg.s 			page 38


1231:stm/stm32l4xx/STM32L4xx_HAL_Driver/Src/stm32l4xx_hal_dac.c ****   /* Process locked */
1232:stm/stm32l4xx/STM32L4xx_HAL_Driver/Src/stm32l4xx_hal_dac.c ****   __HAL_LOCK(hdac);
1233:stm/stm32l4xx/STM32L4xx_HAL_Driver/Src/stm32l4xx_hal_dac.c **** 
1234:stm/stm32l4xx/STM32L4xx_HAL_Driver/Src/stm32l4xx_hal_dac.c ****   /* Change DAC state */
1235:stm/stm32l4xx/STM32L4xx_HAL_Driver/Src/stm32l4xx_hal_dac.c ****   hdac->State = HAL_DAC_STATE_BUSY;
1236:stm/stm32l4xx/STM32L4xx_HAL_Driver/Src/stm32l4xx_hal_dac.c **** 
1237:stm/stm32l4xx/STM32L4xx_HAL_Driver/Src/stm32l4xx_hal_dac.c ****   if (sConfig->DAC_SampleAndHold == DAC_SAMPLEANDHOLD_ENABLE)
1238:stm/stm32l4xx/STM32L4xx_HAL_Driver/Src/stm32l4xx_hal_dac.c ****   /* Sample on old configuration */
1239:stm/stm32l4xx/STM32L4xx_HAL_Driver/Src/stm32l4xx_hal_dac.c ****   {
1240:stm/stm32l4xx/STM32L4xx_HAL_Driver/Src/stm32l4xx_hal_dac.c ****     /* Get timeout */
1241:stm/stm32l4xx/STM32L4xx_HAL_Driver/Src/stm32l4xx_hal_dac.c ****     tickstart = HAL_GetTick();
1242:stm/stm32l4xx/STM32L4xx_HAL_Driver/Src/stm32l4xx_hal_dac.c **** 
1243:stm/stm32l4xx/STM32L4xx_HAL_Driver/Src/stm32l4xx_hal_dac.c ****     if (Channel == DAC_CHANNEL_1)
1244:stm/stm32l4xx/STM32L4xx_HAL_Driver/Src/stm32l4xx_hal_dac.c ****     {
1245:stm/stm32l4xx/STM32L4xx_HAL_Driver/Src/stm32l4xx_hal_dac.c **** 
1246:stm/stm32l4xx/STM32L4xx_HAL_Driver/Src/stm32l4xx_hal_dac.c ****       /* SHSR1 can be written when BWST1 is cleared */
1247:stm/stm32l4xx/STM32L4xx_HAL_Driver/Src/stm32l4xx_hal_dac.c ****       while (((hdac->Instance->SR) & DAC_SR_BWST1) != 0UL)
1248:stm/stm32l4xx/STM32L4xx_HAL_Driver/Src/stm32l4xx_hal_dac.c ****       {
1249:stm/stm32l4xx/STM32L4xx_HAL_Driver/Src/stm32l4xx_hal_dac.c ****         /* Check for the Timeout */
1250:stm/stm32l4xx/STM32L4xx_HAL_Driver/Src/stm32l4xx_hal_dac.c ****         if ((HAL_GetTick() - tickstart) > TIMEOUT_DAC_CALIBCONFIG)
1251:stm/stm32l4xx/STM32L4xx_HAL_Driver/Src/stm32l4xx_hal_dac.c ****         {
1252:stm/stm32l4xx/STM32L4xx_HAL_Driver/Src/stm32l4xx_hal_dac.c ****           /* New check to avoid false timeout detection in case of preemption */
1253:stm/stm32l4xx/STM32L4xx_HAL_Driver/Src/stm32l4xx_hal_dac.c ****           if(((hdac->Instance->SR) & DAC_SR_BWST1) != 0UL)
1254:stm/stm32l4xx/STM32L4xx_HAL_Driver/Src/stm32l4xx_hal_dac.c ****           {
1255:stm/stm32l4xx/STM32L4xx_HAL_Driver/Src/stm32l4xx_hal_dac.c ****             /* Update error code */
1256:stm/stm32l4xx/STM32L4xx_HAL_Driver/Src/stm32l4xx_hal_dac.c ****             SET_BIT(hdac->ErrorCode, HAL_DAC_ERROR_TIMEOUT);
1257:stm/stm32l4xx/STM32L4xx_HAL_Driver/Src/stm32l4xx_hal_dac.c **** 
1258:stm/stm32l4xx/STM32L4xx_HAL_Driver/Src/stm32l4xx_hal_dac.c ****             /* Change the DMA state */
1259:stm/stm32l4xx/STM32L4xx_HAL_Driver/Src/stm32l4xx_hal_dac.c ****             hdac->State = HAL_DAC_STATE_TIMEOUT;
1260:stm/stm32l4xx/STM32L4xx_HAL_Driver/Src/stm32l4xx_hal_dac.c **** 
1261:stm/stm32l4xx/STM32L4xx_HAL_Driver/Src/stm32l4xx_hal_dac.c ****             return HAL_TIMEOUT;
1262:stm/stm32l4xx/STM32L4xx_HAL_Driver/Src/stm32l4xx_hal_dac.c ****           }
1263:stm/stm32l4xx/STM32L4xx_HAL_Driver/Src/stm32l4xx_hal_dac.c ****         }
1264:stm/stm32l4xx/STM32L4xx_HAL_Driver/Src/stm32l4xx_hal_dac.c ****       }
1265:stm/stm32l4xx/STM32L4xx_HAL_Driver/Src/stm32l4xx_hal_dac.c ****       HAL_Delay(1);
1266:stm/stm32l4xx/STM32L4xx_HAL_Driver/Src/stm32l4xx_hal_dac.c ****       hdac->Instance->SHSR1 = sConfig->DAC_SampleAndHoldConfig.DAC_SampleTime;
1267:stm/stm32l4xx/STM32L4xx_HAL_Driver/Src/stm32l4xx_hal_dac.c ****     }
1268:stm/stm32l4xx/STM32L4xx_HAL_Driver/Src/stm32l4xx_hal_dac.c **** #if !defined (STM32L451xx) & !defined (STM32L452xx) & !defined (STM32L462xx)
1269:stm/stm32l4xx/STM32L4xx_HAL_Driver/Src/stm32l4xx_hal_dac.c ****     else /* Channel 2 */
1270:stm/stm32l4xx/STM32L4xx_HAL_Driver/Src/stm32l4xx_hal_dac.c ****     {
1271:stm/stm32l4xx/STM32L4xx_HAL_Driver/Src/stm32l4xx_hal_dac.c ****       /* SHSR2 can be written when BWST2 is cleared */
1272:stm/stm32l4xx/STM32L4xx_HAL_Driver/Src/stm32l4xx_hal_dac.c **** 
1273:stm/stm32l4xx/STM32L4xx_HAL_Driver/Src/stm32l4xx_hal_dac.c ****       while (((hdac->Instance->SR) & DAC_SR_BWST2) != 0UL)
1274:stm/stm32l4xx/STM32L4xx_HAL_Driver/Src/stm32l4xx_hal_dac.c ****       {
1275:stm/stm32l4xx/STM32L4xx_HAL_Driver/Src/stm32l4xx_hal_dac.c ****         /* Check for the Timeout */
1276:stm/stm32l4xx/STM32L4xx_HAL_Driver/Src/stm32l4xx_hal_dac.c ****         if ((HAL_GetTick() - tickstart) > TIMEOUT_DAC_CALIBCONFIG)
1277:stm/stm32l4xx/STM32L4xx_HAL_Driver/Src/stm32l4xx_hal_dac.c ****         {
1278:stm/stm32l4xx/STM32L4xx_HAL_Driver/Src/stm32l4xx_hal_dac.c ****           /* New check to avoid false timeout detection in case of preemption */
1279:stm/stm32l4xx/STM32L4xx_HAL_Driver/Src/stm32l4xx_hal_dac.c ****           if(((hdac->Instance->SR) & DAC_SR_BWST2) != 0UL)
1280:stm/stm32l4xx/STM32L4xx_HAL_Driver/Src/stm32l4xx_hal_dac.c ****           {
1281:stm/stm32l4xx/STM32L4xx_HAL_Driver/Src/stm32l4xx_hal_dac.c ****             /* Update error code */
1282:stm/stm32l4xx/STM32L4xx_HAL_Driver/Src/stm32l4xx_hal_dac.c ****             SET_BIT(hdac->ErrorCode, HAL_DAC_ERROR_TIMEOUT);
1283:stm/stm32l4xx/STM32L4xx_HAL_Driver/Src/stm32l4xx_hal_dac.c **** 
1284:stm/stm32l4xx/STM32L4xx_HAL_Driver/Src/stm32l4xx_hal_dac.c ****             /* Change the DMA state */
1285:stm/stm32l4xx/STM32L4xx_HAL_Driver/Src/stm32l4xx_hal_dac.c ****             hdac->State = HAL_DAC_STATE_TIMEOUT;
1286:stm/stm32l4xx/STM32L4xx_HAL_Driver/Src/stm32l4xx_hal_dac.c **** 
1287:stm/stm32l4xx/STM32L4xx_HAL_Driver/Src/stm32l4xx_hal_dac.c ****             return HAL_TIMEOUT;
ARM GAS  /tmp/cc1emfwg.s 			page 39


1288:stm/stm32l4xx/STM32L4xx_HAL_Driver/Src/stm32l4xx_hal_dac.c ****           }
1289:stm/stm32l4xx/STM32L4xx_HAL_Driver/Src/stm32l4xx_hal_dac.c ****         }
1290:stm/stm32l4xx/STM32L4xx_HAL_Driver/Src/stm32l4xx_hal_dac.c ****       }
1291:stm/stm32l4xx/STM32L4xx_HAL_Driver/Src/stm32l4xx_hal_dac.c ****       HAL_Delay(1U);
1292:stm/stm32l4xx/STM32L4xx_HAL_Driver/Src/stm32l4xx_hal_dac.c ****       hdac->Instance->SHSR2 = sConfig->DAC_SampleAndHoldConfig.DAC_SampleTime;
1293:stm/stm32l4xx/STM32L4xx_HAL_Driver/Src/stm32l4xx_hal_dac.c ****     }
1294:stm/stm32l4xx/STM32L4xx_HAL_Driver/Src/stm32l4xx_hal_dac.c **** #endif /* STM32L451xx STM32L452xx STM32L462xx */
1295:stm/stm32l4xx/STM32L4xx_HAL_Driver/Src/stm32l4xx_hal_dac.c **** 
1296:stm/stm32l4xx/STM32L4xx_HAL_Driver/Src/stm32l4xx_hal_dac.c ****     /* HoldTime */
1297:stm/stm32l4xx/STM32L4xx_HAL_Driver/Src/stm32l4xx_hal_dac.c ****     MODIFY_REG(hdac->Instance->SHHR, DAC_SHHR_THOLD1 << (Channel & 0x10UL), (sConfig->DAC_SampleAnd
1298:stm/stm32l4xx/STM32L4xx_HAL_Driver/Src/stm32l4xx_hal_dac.c ****     /* RefreshTime */
1299:stm/stm32l4xx/STM32L4xx_HAL_Driver/Src/stm32l4xx_hal_dac.c ****     MODIFY_REG(hdac->Instance->SHRR, DAC_SHRR_TREFRESH1 << (Channel & 0x10UL), (sConfig->DAC_Sample
1300:stm/stm32l4xx/STM32L4xx_HAL_Driver/Src/stm32l4xx_hal_dac.c ****   }
1301:stm/stm32l4xx/STM32L4xx_HAL_Driver/Src/stm32l4xx_hal_dac.c **** 
1302:stm/stm32l4xx/STM32L4xx_HAL_Driver/Src/stm32l4xx_hal_dac.c ****   if (sConfig->DAC_UserTrimming == DAC_TRIMMING_USER)
1303:stm/stm32l4xx/STM32L4xx_HAL_Driver/Src/stm32l4xx_hal_dac.c ****   /* USER TRIMMING */
1304:stm/stm32l4xx/STM32L4xx_HAL_Driver/Src/stm32l4xx_hal_dac.c ****   {
1305:stm/stm32l4xx/STM32L4xx_HAL_Driver/Src/stm32l4xx_hal_dac.c ****     /* Get the DAC CCR value */
1306:stm/stm32l4xx/STM32L4xx_HAL_Driver/Src/stm32l4xx_hal_dac.c ****     tmpreg1 = hdac->Instance->CCR;
1307:stm/stm32l4xx/STM32L4xx_HAL_Driver/Src/stm32l4xx_hal_dac.c ****     /* Clear trimming value */
1308:stm/stm32l4xx/STM32L4xx_HAL_Driver/Src/stm32l4xx_hal_dac.c ****     tmpreg1 &= ~(((uint32_t)(DAC_CCR_OTRIM1)) << (Channel & 0x10UL));
1309:stm/stm32l4xx/STM32L4xx_HAL_Driver/Src/stm32l4xx_hal_dac.c ****     /* Configure for the selected trimming offset */
1310:stm/stm32l4xx/STM32L4xx_HAL_Driver/Src/stm32l4xx_hal_dac.c ****     tmpreg2 = sConfig->DAC_TrimmingValue;
1311:stm/stm32l4xx/STM32L4xx_HAL_Driver/Src/stm32l4xx_hal_dac.c ****     /* Calculate CCR register value depending on DAC_Channel */
1312:stm/stm32l4xx/STM32L4xx_HAL_Driver/Src/stm32l4xx_hal_dac.c ****     tmpreg1 |= tmpreg2 << (Channel & 0x10UL);
1313:stm/stm32l4xx/STM32L4xx_HAL_Driver/Src/stm32l4xx_hal_dac.c ****     /* Write to DAC CCR */
1314:stm/stm32l4xx/STM32L4xx_HAL_Driver/Src/stm32l4xx_hal_dac.c ****     hdac->Instance->CCR = tmpreg1;
1315:stm/stm32l4xx/STM32L4xx_HAL_Driver/Src/stm32l4xx_hal_dac.c ****   }
1316:stm/stm32l4xx/STM32L4xx_HAL_Driver/Src/stm32l4xx_hal_dac.c ****   /* else factory trimming is used (factory setting are available at reset)*/
1317:stm/stm32l4xx/STM32L4xx_HAL_Driver/Src/stm32l4xx_hal_dac.c ****   /* SW Nothing has nothing to do */
1318:stm/stm32l4xx/STM32L4xx_HAL_Driver/Src/stm32l4xx_hal_dac.c **** 
1319:stm/stm32l4xx/STM32L4xx_HAL_Driver/Src/stm32l4xx_hal_dac.c ****   /* Get the DAC MCR value */
1320:stm/stm32l4xx/STM32L4xx_HAL_Driver/Src/stm32l4xx_hal_dac.c ****   tmpreg1 = hdac->Instance->MCR;
1321:stm/stm32l4xx/STM32L4xx_HAL_Driver/Src/stm32l4xx_hal_dac.c ****   /* Clear DAC_MCR_MODEx bits */
1322:stm/stm32l4xx/STM32L4xx_HAL_Driver/Src/stm32l4xx_hal_dac.c ****   tmpreg1 &= ~(((uint32_t)(DAC_MCR_MODE1)) << (Channel & 0x10UL));
1323:stm/stm32l4xx/STM32L4xx_HAL_Driver/Src/stm32l4xx_hal_dac.c ****   /* Configure for the selected DAC channel: mode, buffer output & on chip peripheral connect */
1324:stm/stm32l4xx/STM32L4xx_HAL_Driver/Src/stm32l4xx_hal_dac.c ****   tmpreg2 = (sConfig->DAC_SampleAndHold | sConfig->DAC_OutputBuffer | sConfig->DAC_ConnectOnChipPer
1325:stm/stm32l4xx/STM32L4xx_HAL_Driver/Src/stm32l4xx_hal_dac.c ****   /* Calculate MCR register value depending on DAC_Channel */
1326:stm/stm32l4xx/STM32L4xx_HAL_Driver/Src/stm32l4xx_hal_dac.c ****   tmpreg1 |= tmpreg2 << (Channel & 0x10UL);
1327:stm/stm32l4xx/STM32L4xx_HAL_Driver/Src/stm32l4xx_hal_dac.c ****   /* Write to DAC MCR */
1328:stm/stm32l4xx/STM32L4xx_HAL_Driver/Src/stm32l4xx_hal_dac.c ****   hdac->Instance->MCR = tmpreg1;
1329:stm/stm32l4xx/STM32L4xx_HAL_Driver/Src/stm32l4xx_hal_dac.c **** 
1330:stm/stm32l4xx/STM32L4xx_HAL_Driver/Src/stm32l4xx_hal_dac.c ****   /* DAC in normal operating mode hence clear DAC_CR_CENx bit */
1331:stm/stm32l4xx/STM32L4xx_HAL_Driver/Src/stm32l4xx_hal_dac.c ****   CLEAR_BIT(hdac->Instance->CR, DAC_CR_CEN1 << (Channel & 0x10UL));
1332:stm/stm32l4xx/STM32L4xx_HAL_Driver/Src/stm32l4xx_hal_dac.c **** 
1333:stm/stm32l4xx/STM32L4xx_HAL_Driver/Src/stm32l4xx_hal_dac.c ****   /* Get the DAC CR value */
1334:stm/stm32l4xx/STM32L4xx_HAL_Driver/Src/stm32l4xx_hal_dac.c ****   tmpreg1 = hdac->Instance->CR;
1335:stm/stm32l4xx/STM32L4xx_HAL_Driver/Src/stm32l4xx_hal_dac.c ****   /* Clear TENx, TSELx, WAVEx and MAMPx bits */
1336:stm/stm32l4xx/STM32L4xx_HAL_Driver/Src/stm32l4xx_hal_dac.c ****   tmpreg1 &= ~(((uint32_t)(DAC_CR_MAMP1 | DAC_CR_WAVE1 | DAC_CR_TSEL1 | DAC_CR_TEN1)) << (Channel &
1337:stm/stm32l4xx/STM32L4xx_HAL_Driver/Src/stm32l4xx_hal_dac.c ****   /* Configure for the selected DAC channel: trigger */
1338:stm/stm32l4xx/STM32L4xx_HAL_Driver/Src/stm32l4xx_hal_dac.c ****   /* Set TSELx and TENx bits according to DAC_Trigger value */
1339:stm/stm32l4xx/STM32L4xx_HAL_Driver/Src/stm32l4xx_hal_dac.c ****   tmpreg2 = sConfig->DAC_Trigger;
1340:stm/stm32l4xx/STM32L4xx_HAL_Driver/Src/stm32l4xx_hal_dac.c ****   /* Calculate CR register value depending on DAC_Channel */
1341:stm/stm32l4xx/STM32L4xx_HAL_Driver/Src/stm32l4xx_hal_dac.c ****   tmpreg1 |= tmpreg2 << (Channel & 0x10UL);
1342:stm/stm32l4xx/STM32L4xx_HAL_Driver/Src/stm32l4xx_hal_dac.c **** #if defined (STM32L4P5xx) || defined (STM32L4Q5xx) || defined (STM32L4R5xx) || defined (STM32L4R7xx
1343:stm/stm32l4xx/STM32L4xx_HAL_Driver/Src/stm32l4xx_hal_dac.c ****   if (DAC_HIGH_FREQUENCY_INTERFACE_MODE_ABOVE_80MHZ == sConfig->DAC_HighFrequency)
1344:stm/stm32l4xx/STM32L4xx_HAL_Driver/Src/stm32l4xx_hal_dac.c ****   {
ARM GAS  /tmp/cc1emfwg.s 			page 40


1345:stm/stm32l4xx/STM32L4xx_HAL_Driver/Src/stm32l4xx_hal_dac.c ****     tmpreg1 |= DAC_CR_HFSEL;
1346:stm/stm32l4xx/STM32L4xx_HAL_Driver/Src/stm32l4xx_hal_dac.c ****   }
1347:stm/stm32l4xx/STM32L4xx_HAL_Driver/Src/stm32l4xx_hal_dac.c ****   else
1348:stm/stm32l4xx/STM32L4xx_HAL_Driver/Src/stm32l4xx_hal_dac.c ****   {
1349:stm/stm32l4xx/STM32L4xx_HAL_Driver/Src/stm32l4xx_hal_dac.c ****     if (DAC_HIGH_FREQUENCY_INTERFACE_MODE_DISABLE == sConfig->DAC_HighFrequency)
1350:stm/stm32l4xx/STM32L4xx_HAL_Driver/Src/stm32l4xx_hal_dac.c ****     {
1351:stm/stm32l4xx/STM32L4xx_HAL_Driver/Src/stm32l4xx_hal_dac.c ****       tmpreg1 &= ~(DAC_CR_HFSEL);
1352:stm/stm32l4xx/STM32L4xx_HAL_Driver/Src/stm32l4xx_hal_dac.c ****     }
1353:stm/stm32l4xx/STM32L4xx_HAL_Driver/Src/stm32l4xx_hal_dac.c ****     else /* Automatic selection */
1354:stm/stm32l4xx/STM32L4xx_HAL_Driver/Src/stm32l4xx_hal_dac.c ****     {
1355:stm/stm32l4xx/STM32L4xx_HAL_Driver/Src/stm32l4xx_hal_dac.c ****       hclkfreq = HAL_RCC_GetHCLKFreq();
1356:stm/stm32l4xx/STM32L4xx_HAL_Driver/Src/stm32l4xx_hal_dac.c ****       if (hclkfreq > HFSEL_ENABLE_THRESHOLD_80MHZ)
1357:stm/stm32l4xx/STM32L4xx_HAL_Driver/Src/stm32l4xx_hal_dac.c ****       {
1358:stm/stm32l4xx/STM32L4xx_HAL_Driver/Src/stm32l4xx_hal_dac.c ****         /* High frequency enable when HCLK frequency higher than 80   */
1359:stm/stm32l4xx/STM32L4xx_HAL_Driver/Src/stm32l4xx_hal_dac.c ****          tmpreg1 |= DAC_CR_HFSEL;
1360:stm/stm32l4xx/STM32L4xx_HAL_Driver/Src/stm32l4xx_hal_dac.c ****       }
1361:stm/stm32l4xx/STM32L4xx_HAL_Driver/Src/stm32l4xx_hal_dac.c ****       else
1362:stm/stm32l4xx/STM32L4xx_HAL_Driver/Src/stm32l4xx_hal_dac.c ****       {
1363:stm/stm32l4xx/STM32L4xx_HAL_Driver/Src/stm32l4xx_hal_dac.c ****         /* High frequency disable when HCLK frequency higher than 80  */
1364:stm/stm32l4xx/STM32L4xx_HAL_Driver/Src/stm32l4xx_hal_dac.c ****         tmpreg1 &= ~(DAC_CR_HFSEL);
1365:stm/stm32l4xx/STM32L4xx_HAL_Driver/Src/stm32l4xx_hal_dac.c ****       }
1366:stm/stm32l4xx/STM32L4xx_HAL_Driver/Src/stm32l4xx_hal_dac.c ****     }
1367:stm/stm32l4xx/STM32L4xx_HAL_Driver/Src/stm32l4xx_hal_dac.c ****   }
1368:stm/stm32l4xx/STM32L4xx_HAL_Driver/Src/stm32l4xx_hal_dac.c **** 
1369:stm/stm32l4xx/STM32L4xx_HAL_Driver/Src/stm32l4xx_hal_dac.c **** #endif /* STM32L4P5xx STM32L4Q5xx STM32L4R5xx STM32L4R7xx STM32L4R9xx STM32L4S5xx STM32L4S7xx STM32
1370:stm/stm32l4xx/STM32L4xx_HAL_Driver/Src/stm32l4xx_hal_dac.c **** 
1371:stm/stm32l4xx/STM32L4xx_HAL_Driver/Src/stm32l4xx_hal_dac.c ****   /* Write to DAC CR */
1372:stm/stm32l4xx/STM32L4xx_HAL_Driver/Src/stm32l4xx_hal_dac.c ****   hdac->Instance->CR = tmpreg1;
1373:stm/stm32l4xx/STM32L4xx_HAL_Driver/Src/stm32l4xx_hal_dac.c ****   /* Disable wave generation */
1374:stm/stm32l4xx/STM32L4xx_HAL_Driver/Src/stm32l4xx_hal_dac.c ****   hdac->Instance->CR &= ~(DAC_CR_WAVE1 << (Channel & 0x10UL));
1375:stm/stm32l4xx/STM32L4xx_HAL_Driver/Src/stm32l4xx_hal_dac.c **** 
1376:stm/stm32l4xx/STM32L4xx_HAL_Driver/Src/stm32l4xx_hal_dac.c ****   /* Change DAC state */
1377:stm/stm32l4xx/STM32L4xx_HAL_Driver/Src/stm32l4xx_hal_dac.c ****   hdac->State = HAL_DAC_STATE_READY;
1378:stm/stm32l4xx/STM32L4xx_HAL_Driver/Src/stm32l4xx_hal_dac.c **** 
1379:stm/stm32l4xx/STM32L4xx_HAL_Driver/Src/stm32l4xx_hal_dac.c ****   /* Process unlocked */
1380:stm/stm32l4xx/STM32L4xx_HAL_Driver/Src/stm32l4xx_hal_dac.c ****   __HAL_UNLOCK(hdac);
1381:stm/stm32l4xx/STM32L4xx_HAL_Driver/Src/stm32l4xx_hal_dac.c **** 
1382:stm/stm32l4xx/STM32L4xx_HAL_Driver/Src/stm32l4xx_hal_dac.c ****   /* Return function status */
1383:stm/stm32l4xx/STM32L4xx_HAL_Driver/Src/stm32l4xx_hal_dac.c ****   return HAL_OK;
1384:stm/stm32l4xx/STM32L4xx_HAL_Driver/Src/stm32l4xx_hal_dac.c **** }
1385:stm/stm32l4xx/STM32L4xx_HAL_Driver/Src/stm32l4xx_hal_dac.c **** 
1386:stm/stm32l4xx/STM32L4xx_HAL_Driver/Src/stm32l4xx_hal_dac.c **** /**
1387:stm/stm32l4xx/STM32L4xx_HAL_Driver/Src/stm32l4xx_hal_dac.c ****   * @}
1388:stm/stm32l4xx/STM32L4xx_HAL_Driver/Src/stm32l4xx_hal_dac.c ****   */
1389:stm/stm32l4xx/STM32L4xx_HAL_Driver/Src/stm32l4xx_hal_dac.c **** 
1390:stm/stm32l4xx/STM32L4xx_HAL_Driver/Src/stm32l4xx_hal_dac.c **** /** @defgroup DAC_Exported_Functions_Group4 Peripheral State and Errors functions
1391:stm/stm32l4xx/STM32L4xx_HAL_Driver/Src/stm32l4xx_hal_dac.c ****  *  @brief   Peripheral State and Errors functions
1392:stm/stm32l4xx/STM32L4xx_HAL_Driver/Src/stm32l4xx_hal_dac.c ****  *
1393:stm/stm32l4xx/STM32L4xx_HAL_Driver/Src/stm32l4xx_hal_dac.c **** @verbatim
1394:stm/stm32l4xx/STM32L4xx_HAL_Driver/Src/stm32l4xx_hal_dac.c ****   ==============================================================================
1395:stm/stm32l4xx/STM32L4xx_HAL_Driver/Src/stm32l4xx_hal_dac.c ****             ##### Peripheral State and Errors functions #####
1396:stm/stm32l4xx/STM32L4xx_HAL_Driver/Src/stm32l4xx_hal_dac.c ****   ==============================================================================
1397:stm/stm32l4xx/STM32L4xx_HAL_Driver/Src/stm32l4xx_hal_dac.c ****     [..]
1398:stm/stm32l4xx/STM32L4xx_HAL_Driver/Src/stm32l4xx_hal_dac.c ****     This subsection provides functions allowing to
1399:stm/stm32l4xx/STM32L4xx_HAL_Driver/Src/stm32l4xx_hal_dac.c ****       (+) Check the DAC state.
1400:stm/stm32l4xx/STM32L4xx_HAL_Driver/Src/stm32l4xx_hal_dac.c ****       (+) Check the DAC Errors.
1401:stm/stm32l4xx/STM32L4xx_HAL_Driver/Src/stm32l4xx_hal_dac.c **** 
ARM GAS  /tmp/cc1emfwg.s 			page 41


1402:stm/stm32l4xx/STM32L4xx_HAL_Driver/Src/stm32l4xx_hal_dac.c **** @endverbatim
1403:stm/stm32l4xx/STM32L4xx_HAL_Driver/Src/stm32l4xx_hal_dac.c ****   * @{
1404:stm/stm32l4xx/STM32L4xx_HAL_Driver/Src/stm32l4xx_hal_dac.c ****   */
1405:stm/stm32l4xx/STM32L4xx_HAL_Driver/Src/stm32l4xx_hal_dac.c **** 
1406:stm/stm32l4xx/STM32L4xx_HAL_Driver/Src/stm32l4xx_hal_dac.c **** /**
1407:stm/stm32l4xx/STM32L4xx_HAL_Driver/Src/stm32l4xx_hal_dac.c ****   * @brief  return the DAC handle state
1408:stm/stm32l4xx/STM32L4xx_HAL_Driver/Src/stm32l4xx_hal_dac.c ****   * @param  hdac pointer to a DAC_HandleTypeDef structure that contains
1409:stm/stm32l4xx/STM32L4xx_HAL_Driver/Src/stm32l4xx_hal_dac.c ****   *         the configuration information for the specified DAC.
1410:stm/stm32l4xx/STM32L4xx_HAL_Driver/Src/stm32l4xx_hal_dac.c ****   * @retval HAL state
1411:stm/stm32l4xx/STM32L4xx_HAL_Driver/Src/stm32l4xx_hal_dac.c ****   */
1412:stm/stm32l4xx/STM32L4xx_HAL_Driver/Src/stm32l4xx_hal_dac.c **** HAL_DAC_StateTypeDef HAL_DAC_GetState(DAC_HandleTypeDef *hdac)
1413:stm/stm32l4xx/STM32L4xx_HAL_Driver/Src/stm32l4xx_hal_dac.c **** {
1414:stm/stm32l4xx/STM32L4xx_HAL_Driver/Src/stm32l4xx_hal_dac.c ****   /* Return DAC handle state */
1415:stm/stm32l4xx/STM32L4xx_HAL_Driver/Src/stm32l4xx_hal_dac.c ****   return hdac->State;
1416:stm/stm32l4xx/STM32L4xx_HAL_Driver/Src/stm32l4xx_hal_dac.c **** }
1417:stm/stm32l4xx/STM32L4xx_HAL_Driver/Src/stm32l4xx_hal_dac.c **** 
1418:stm/stm32l4xx/STM32L4xx_HAL_Driver/Src/stm32l4xx_hal_dac.c **** 
1419:stm/stm32l4xx/STM32L4xx_HAL_Driver/Src/stm32l4xx_hal_dac.c **** /**
1420:stm/stm32l4xx/STM32L4xx_HAL_Driver/Src/stm32l4xx_hal_dac.c ****   * @brief  Return the DAC error code
1421:stm/stm32l4xx/STM32L4xx_HAL_Driver/Src/stm32l4xx_hal_dac.c ****   * @param  hdac pointer to a DAC_HandleTypeDef structure that contains
1422:stm/stm32l4xx/STM32L4xx_HAL_Driver/Src/stm32l4xx_hal_dac.c ****   *         the configuration information for the specified DAC.
1423:stm/stm32l4xx/STM32L4xx_HAL_Driver/Src/stm32l4xx_hal_dac.c ****   * @retval DAC Error Code
1424:stm/stm32l4xx/STM32L4xx_HAL_Driver/Src/stm32l4xx_hal_dac.c ****   */
1425:stm/stm32l4xx/STM32L4xx_HAL_Driver/Src/stm32l4xx_hal_dac.c **** uint32_t HAL_DAC_GetError(DAC_HandleTypeDef *hdac)
1426:stm/stm32l4xx/STM32L4xx_HAL_Driver/Src/stm32l4xx_hal_dac.c **** {
1427:stm/stm32l4xx/STM32L4xx_HAL_Driver/Src/stm32l4xx_hal_dac.c ****   return hdac->ErrorCode;
1428:stm/stm32l4xx/STM32L4xx_HAL_Driver/Src/stm32l4xx_hal_dac.c **** }
1429:stm/stm32l4xx/STM32L4xx_HAL_Driver/Src/stm32l4xx_hal_dac.c **** 
1430:stm/stm32l4xx/STM32L4xx_HAL_Driver/Src/stm32l4xx_hal_dac.c **** /**
1431:stm/stm32l4xx/STM32L4xx_HAL_Driver/Src/stm32l4xx_hal_dac.c ****   * @}
1432:stm/stm32l4xx/STM32L4xx_HAL_Driver/Src/stm32l4xx_hal_dac.c ****   */
1433:stm/stm32l4xx/STM32L4xx_HAL_Driver/Src/stm32l4xx_hal_dac.c **** 
1434:stm/stm32l4xx/STM32L4xx_HAL_Driver/Src/stm32l4xx_hal_dac.c **** /**
1435:stm/stm32l4xx/STM32L4xx_HAL_Driver/Src/stm32l4xx_hal_dac.c ****   * @}
1436:stm/stm32l4xx/STM32L4xx_HAL_Driver/Src/stm32l4xx_hal_dac.c ****   */
1437:stm/stm32l4xx/STM32L4xx_HAL_Driver/Src/stm32l4xx_hal_dac.c **** 
1438:stm/stm32l4xx/STM32L4xx_HAL_Driver/Src/stm32l4xx_hal_dac.c **** /** @addtogroup DAC_Exported_Functions
1439:stm/stm32l4xx/STM32L4xx_HAL_Driver/Src/stm32l4xx_hal_dac.c ****   * @{
1440:stm/stm32l4xx/STM32L4xx_HAL_Driver/Src/stm32l4xx_hal_dac.c ****   */
1441:stm/stm32l4xx/STM32L4xx_HAL_Driver/Src/stm32l4xx_hal_dac.c **** 
1442:stm/stm32l4xx/STM32L4xx_HAL_Driver/Src/stm32l4xx_hal_dac.c **** /** @addtogroup DAC_Exported_Functions_Group1
1443:stm/stm32l4xx/STM32L4xx_HAL_Driver/Src/stm32l4xx_hal_dac.c ****   * @{
1444:stm/stm32l4xx/STM32L4xx_HAL_Driver/Src/stm32l4xx_hal_dac.c ****   */
1445:stm/stm32l4xx/STM32L4xx_HAL_Driver/Src/stm32l4xx_hal_dac.c **** #if (USE_HAL_DAC_REGISTER_CALLBACKS == 1)
1446:stm/stm32l4xx/STM32L4xx_HAL_Driver/Src/stm32l4xx_hal_dac.c **** /**
1447:stm/stm32l4xx/STM32L4xx_HAL_Driver/Src/stm32l4xx_hal_dac.c ****   * @brief  Register a User DAC Callback
1448:stm/stm32l4xx/STM32L4xx_HAL_Driver/Src/stm32l4xx_hal_dac.c ****   *         To be used instead of the weak (overridden) predefined callback
1449:stm/stm32l4xx/STM32L4xx_HAL_Driver/Src/stm32l4xx_hal_dac.c ****   * @param  hdac DAC handle
1450:stm/stm32l4xx/STM32L4xx_HAL_Driver/Src/stm32l4xx_hal_dac.c ****   * @param  CallbackID ID of the callback to be registered
1451:stm/stm32l4xx/STM32L4xx_HAL_Driver/Src/stm32l4xx_hal_dac.c ****   *         This parameter can be one of the following values:
1452:stm/stm32l4xx/STM32L4xx_HAL_Driver/Src/stm32l4xx_hal_dac.c ****   *          @arg @ref HAL_DAC_ERROR_INVALID_CALLBACK   DAC Error Callback ID
1453:stm/stm32l4xx/STM32L4xx_HAL_Driver/Src/stm32l4xx_hal_dac.c ****   *          @arg @ref HAL_DAC_CH1_COMPLETE_CB_ID       DAC CH1 Complete Callback ID
1454:stm/stm32l4xx/STM32L4xx_HAL_Driver/Src/stm32l4xx_hal_dac.c ****   *          @arg @ref HAL_DAC_CH1_HALF_COMPLETE_CB_ID  DAC CH1 Half Complete Callback ID
1455:stm/stm32l4xx/STM32L4xx_HAL_Driver/Src/stm32l4xx_hal_dac.c ****   *          @arg @ref HAL_DAC_CH1_ERROR_ID             DAC CH1 Error Callback ID
1456:stm/stm32l4xx/STM32L4xx_HAL_Driver/Src/stm32l4xx_hal_dac.c ****   *          @arg @ref HAL_DAC_CH1_UNDERRUN_CB_ID       DAC CH1 UnderRun Callback ID
1457:stm/stm32l4xx/STM32L4xx_HAL_Driver/Src/stm32l4xx_hal_dac.c ****   *          @arg @ref HAL_DAC_CH2_COMPLETE_CB_ID       DAC CH2 Complete Callback ID
1458:stm/stm32l4xx/STM32L4xx_HAL_Driver/Src/stm32l4xx_hal_dac.c ****   *          @arg @ref HAL_DAC_CH2_HALF_COMPLETE_CB_ID  DAC CH2 Half Complete Callback ID
ARM GAS  /tmp/cc1emfwg.s 			page 42


1459:stm/stm32l4xx/STM32L4xx_HAL_Driver/Src/stm32l4xx_hal_dac.c ****   *          @arg @ref HAL_DAC_CH2_ERROR_ID             DAC CH2 Error Callback ID
1460:stm/stm32l4xx/STM32L4xx_HAL_Driver/Src/stm32l4xx_hal_dac.c ****   *          @arg @ref HAL_DAC_CH2_UNDERRUN_CB_ID       DAC CH2 UnderRun Callback ID
1461:stm/stm32l4xx/STM32L4xx_HAL_Driver/Src/stm32l4xx_hal_dac.c ****   *          @arg @ref HAL_DAC_MSPINIT_CB_ID            DAC MSP Init Callback ID
1462:stm/stm32l4xx/STM32L4xx_HAL_Driver/Src/stm32l4xx_hal_dac.c ****   *          @arg @ref HAL_DAC_MSPDEINIT_CB_ID          DAC MSP DeInit Callback ID
1463:stm/stm32l4xx/STM32L4xx_HAL_Driver/Src/stm32l4xx_hal_dac.c ****   *
1464:stm/stm32l4xx/STM32L4xx_HAL_Driver/Src/stm32l4xx_hal_dac.c ****   * @param  pCallback pointer to the Callback function
1465:stm/stm32l4xx/STM32L4xx_HAL_Driver/Src/stm32l4xx_hal_dac.c ****   * @retval status
1466:stm/stm32l4xx/STM32L4xx_HAL_Driver/Src/stm32l4xx_hal_dac.c ****   */
1467:stm/stm32l4xx/STM32L4xx_HAL_Driver/Src/stm32l4xx_hal_dac.c **** HAL_StatusTypeDef HAL_DAC_RegisterCallback(DAC_HandleTypeDef *hdac, HAL_DAC_CallbackIDTypeDef Callb
1468:stm/stm32l4xx/STM32L4xx_HAL_Driver/Src/stm32l4xx_hal_dac.c ****                                            pDAC_CallbackTypeDef pCallback)
1469:stm/stm32l4xx/STM32L4xx_HAL_Driver/Src/stm32l4xx_hal_dac.c **** {
1470:stm/stm32l4xx/STM32L4xx_HAL_Driver/Src/stm32l4xx_hal_dac.c ****   HAL_StatusTypeDef status = HAL_OK;
1471:stm/stm32l4xx/STM32L4xx_HAL_Driver/Src/stm32l4xx_hal_dac.c **** 
1472:stm/stm32l4xx/STM32L4xx_HAL_Driver/Src/stm32l4xx_hal_dac.c ****   if (pCallback == NULL)
1473:stm/stm32l4xx/STM32L4xx_HAL_Driver/Src/stm32l4xx_hal_dac.c ****   {
1474:stm/stm32l4xx/STM32L4xx_HAL_Driver/Src/stm32l4xx_hal_dac.c ****     /* Update the error code */
1475:stm/stm32l4xx/STM32L4xx_HAL_Driver/Src/stm32l4xx_hal_dac.c ****     hdac->ErrorCode |= HAL_DAC_ERROR_INVALID_CALLBACK;
1476:stm/stm32l4xx/STM32L4xx_HAL_Driver/Src/stm32l4xx_hal_dac.c ****     return HAL_ERROR;
1477:stm/stm32l4xx/STM32L4xx_HAL_Driver/Src/stm32l4xx_hal_dac.c ****   }
1478:stm/stm32l4xx/STM32L4xx_HAL_Driver/Src/stm32l4xx_hal_dac.c **** 
1479:stm/stm32l4xx/STM32L4xx_HAL_Driver/Src/stm32l4xx_hal_dac.c ****   /* Process locked */
1480:stm/stm32l4xx/STM32L4xx_HAL_Driver/Src/stm32l4xx_hal_dac.c ****   __HAL_LOCK(hdac);
1481:stm/stm32l4xx/STM32L4xx_HAL_Driver/Src/stm32l4xx_hal_dac.c **** 
1482:stm/stm32l4xx/STM32L4xx_HAL_Driver/Src/stm32l4xx_hal_dac.c ****   if (hdac->State == HAL_DAC_STATE_READY)
1483:stm/stm32l4xx/STM32L4xx_HAL_Driver/Src/stm32l4xx_hal_dac.c ****   {
1484:stm/stm32l4xx/STM32L4xx_HAL_Driver/Src/stm32l4xx_hal_dac.c ****     switch (CallbackID)
1485:stm/stm32l4xx/STM32L4xx_HAL_Driver/Src/stm32l4xx_hal_dac.c ****     {
1486:stm/stm32l4xx/STM32L4xx_HAL_Driver/Src/stm32l4xx_hal_dac.c ****     case HAL_DAC_CH1_COMPLETE_CB_ID :
1487:stm/stm32l4xx/STM32L4xx_HAL_Driver/Src/stm32l4xx_hal_dac.c ****       hdac->ConvCpltCallbackCh1 = pCallback;
1488:stm/stm32l4xx/STM32L4xx_HAL_Driver/Src/stm32l4xx_hal_dac.c ****       break;
1489:stm/stm32l4xx/STM32L4xx_HAL_Driver/Src/stm32l4xx_hal_dac.c ****     case HAL_DAC_CH1_HALF_COMPLETE_CB_ID :
1490:stm/stm32l4xx/STM32L4xx_HAL_Driver/Src/stm32l4xx_hal_dac.c ****       hdac->ConvHalfCpltCallbackCh1 = pCallback;
1491:stm/stm32l4xx/STM32L4xx_HAL_Driver/Src/stm32l4xx_hal_dac.c ****       break;
1492:stm/stm32l4xx/STM32L4xx_HAL_Driver/Src/stm32l4xx_hal_dac.c ****     case HAL_DAC_CH1_ERROR_ID :
1493:stm/stm32l4xx/STM32L4xx_HAL_Driver/Src/stm32l4xx_hal_dac.c ****       hdac->ErrorCallbackCh1 = pCallback;
1494:stm/stm32l4xx/STM32L4xx_HAL_Driver/Src/stm32l4xx_hal_dac.c ****       break;
1495:stm/stm32l4xx/STM32L4xx_HAL_Driver/Src/stm32l4xx_hal_dac.c ****     case HAL_DAC_CH1_UNDERRUN_CB_ID :
1496:stm/stm32l4xx/STM32L4xx_HAL_Driver/Src/stm32l4xx_hal_dac.c ****       hdac->DMAUnderrunCallbackCh1 = pCallback;
1497:stm/stm32l4xx/STM32L4xx_HAL_Driver/Src/stm32l4xx_hal_dac.c ****       break;
1498:stm/stm32l4xx/STM32L4xx_HAL_Driver/Src/stm32l4xx_hal_dac.c ****     case HAL_DAC_CH2_COMPLETE_CB_ID :
1499:stm/stm32l4xx/STM32L4xx_HAL_Driver/Src/stm32l4xx_hal_dac.c ****       hdac->ConvCpltCallbackCh2 = pCallback;
1500:stm/stm32l4xx/STM32L4xx_HAL_Driver/Src/stm32l4xx_hal_dac.c ****       break;
1501:stm/stm32l4xx/STM32L4xx_HAL_Driver/Src/stm32l4xx_hal_dac.c ****     case HAL_DAC_CH2_HALF_COMPLETE_CB_ID :
1502:stm/stm32l4xx/STM32L4xx_HAL_Driver/Src/stm32l4xx_hal_dac.c ****       hdac->ConvHalfCpltCallbackCh2 = pCallback;
1503:stm/stm32l4xx/STM32L4xx_HAL_Driver/Src/stm32l4xx_hal_dac.c ****       break;
1504:stm/stm32l4xx/STM32L4xx_HAL_Driver/Src/stm32l4xx_hal_dac.c ****     case HAL_DAC_CH2_ERROR_ID :
1505:stm/stm32l4xx/STM32L4xx_HAL_Driver/Src/stm32l4xx_hal_dac.c ****       hdac->ErrorCallbackCh2 = pCallback;
1506:stm/stm32l4xx/STM32L4xx_HAL_Driver/Src/stm32l4xx_hal_dac.c ****       break;
1507:stm/stm32l4xx/STM32L4xx_HAL_Driver/Src/stm32l4xx_hal_dac.c ****     case HAL_DAC_CH2_UNDERRUN_CB_ID :
1508:stm/stm32l4xx/STM32L4xx_HAL_Driver/Src/stm32l4xx_hal_dac.c ****       hdac->DMAUnderrunCallbackCh2 = pCallback;
1509:stm/stm32l4xx/STM32L4xx_HAL_Driver/Src/stm32l4xx_hal_dac.c ****       break;
1510:stm/stm32l4xx/STM32L4xx_HAL_Driver/Src/stm32l4xx_hal_dac.c ****     case HAL_DAC_MSPINIT_CB_ID :
1511:stm/stm32l4xx/STM32L4xx_HAL_Driver/Src/stm32l4xx_hal_dac.c ****       hdac->MspInitCallback = pCallback;
1512:stm/stm32l4xx/STM32L4xx_HAL_Driver/Src/stm32l4xx_hal_dac.c ****       break;
1513:stm/stm32l4xx/STM32L4xx_HAL_Driver/Src/stm32l4xx_hal_dac.c ****     case HAL_DAC_MSPDEINIT_CB_ID :
1514:stm/stm32l4xx/STM32L4xx_HAL_Driver/Src/stm32l4xx_hal_dac.c ****       hdac->MspDeInitCallback = pCallback;
1515:stm/stm32l4xx/STM32L4xx_HAL_Driver/Src/stm32l4xx_hal_dac.c ****       break;
ARM GAS  /tmp/cc1emfwg.s 			page 43


1516:stm/stm32l4xx/STM32L4xx_HAL_Driver/Src/stm32l4xx_hal_dac.c ****     default :
1517:stm/stm32l4xx/STM32L4xx_HAL_Driver/Src/stm32l4xx_hal_dac.c ****       /* Update the error code */
1518:stm/stm32l4xx/STM32L4xx_HAL_Driver/Src/stm32l4xx_hal_dac.c ****       hdac->ErrorCode |= HAL_DAC_ERROR_INVALID_CALLBACK;
1519:stm/stm32l4xx/STM32L4xx_HAL_Driver/Src/stm32l4xx_hal_dac.c ****       /* update return status */
1520:stm/stm32l4xx/STM32L4xx_HAL_Driver/Src/stm32l4xx_hal_dac.c ****       status =  HAL_ERROR;
1521:stm/stm32l4xx/STM32L4xx_HAL_Driver/Src/stm32l4xx_hal_dac.c ****       break;
1522:stm/stm32l4xx/STM32L4xx_HAL_Driver/Src/stm32l4xx_hal_dac.c ****     }
1523:stm/stm32l4xx/STM32L4xx_HAL_Driver/Src/stm32l4xx_hal_dac.c ****   }
1524:stm/stm32l4xx/STM32L4xx_HAL_Driver/Src/stm32l4xx_hal_dac.c ****   else if (hdac->State == HAL_DAC_STATE_RESET)
1525:stm/stm32l4xx/STM32L4xx_HAL_Driver/Src/stm32l4xx_hal_dac.c ****   {
1526:stm/stm32l4xx/STM32L4xx_HAL_Driver/Src/stm32l4xx_hal_dac.c ****     switch (CallbackID)
1527:stm/stm32l4xx/STM32L4xx_HAL_Driver/Src/stm32l4xx_hal_dac.c ****     {
1528:stm/stm32l4xx/STM32L4xx_HAL_Driver/Src/stm32l4xx_hal_dac.c ****     case HAL_DAC_MSPINIT_CB_ID :
1529:stm/stm32l4xx/STM32L4xx_HAL_Driver/Src/stm32l4xx_hal_dac.c ****       hdac->MspInitCallback = pCallback;
1530:stm/stm32l4xx/STM32L4xx_HAL_Driver/Src/stm32l4xx_hal_dac.c ****       break;
1531:stm/stm32l4xx/STM32L4xx_HAL_Driver/Src/stm32l4xx_hal_dac.c ****     case HAL_DAC_MSPDEINIT_CB_ID :
1532:stm/stm32l4xx/STM32L4xx_HAL_Driver/Src/stm32l4xx_hal_dac.c ****       hdac->MspDeInitCallback = pCallback;
1533:stm/stm32l4xx/STM32L4xx_HAL_Driver/Src/stm32l4xx_hal_dac.c ****       break;
1534:stm/stm32l4xx/STM32L4xx_HAL_Driver/Src/stm32l4xx_hal_dac.c ****     default :
1535:stm/stm32l4xx/STM32L4xx_HAL_Driver/Src/stm32l4xx_hal_dac.c ****       /* Update the error code */
1536:stm/stm32l4xx/STM32L4xx_HAL_Driver/Src/stm32l4xx_hal_dac.c ****       hdac->ErrorCode |= HAL_DAC_ERROR_INVALID_CALLBACK;
1537:stm/stm32l4xx/STM32L4xx_HAL_Driver/Src/stm32l4xx_hal_dac.c ****       /* update return status */
1538:stm/stm32l4xx/STM32L4xx_HAL_Driver/Src/stm32l4xx_hal_dac.c ****       status =  HAL_ERROR;
1539:stm/stm32l4xx/STM32L4xx_HAL_Driver/Src/stm32l4xx_hal_dac.c ****       break;
1540:stm/stm32l4xx/STM32L4xx_HAL_Driver/Src/stm32l4xx_hal_dac.c ****     }
1541:stm/stm32l4xx/STM32L4xx_HAL_Driver/Src/stm32l4xx_hal_dac.c ****   }
1542:stm/stm32l4xx/STM32L4xx_HAL_Driver/Src/stm32l4xx_hal_dac.c ****   else
1543:stm/stm32l4xx/STM32L4xx_HAL_Driver/Src/stm32l4xx_hal_dac.c ****   {
1544:stm/stm32l4xx/STM32L4xx_HAL_Driver/Src/stm32l4xx_hal_dac.c ****     /* Update the error code */
1545:stm/stm32l4xx/STM32L4xx_HAL_Driver/Src/stm32l4xx_hal_dac.c ****     hdac->ErrorCode |= HAL_DAC_ERROR_INVALID_CALLBACK;
1546:stm/stm32l4xx/STM32L4xx_HAL_Driver/Src/stm32l4xx_hal_dac.c ****     /* update return status */
1547:stm/stm32l4xx/STM32L4xx_HAL_Driver/Src/stm32l4xx_hal_dac.c ****     status =  HAL_ERROR;
1548:stm/stm32l4xx/STM32L4xx_HAL_Driver/Src/stm32l4xx_hal_dac.c ****   }
1549:stm/stm32l4xx/STM32L4xx_HAL_Driver/Src/stm32l4xx_hal_dac.c **** 
1550:stm/stm32l4xx/STM32L4xx_HAL_Driver/Src/stm32l4xx_hal_dac.c ****   /* Release Lock */
1551:stm/stm32l4xx/STM32L4xx_HAL_Driver/Src/stm32l4xx_hal_dac.c ****   __HAL_UNLOCK(hdac);
1552:stm/stm32l4xx/STM32L4xx_HAL_Driver/Src/stm32l4xx_hal_dac.c ****   return status;
1553:stm/stm32l4xx/STM32L4xx_HAL_Driver/Src/stm32l4xx_hal_dac.c **** }
1554:stm/stm32l4xx/STM32L4xx_HAL_Driver/Src/stm32l4xx_hal_dac.c **** 
1555:stm/stm32l4xx/STM32L4xx_HAL_Driver/Src/stm32l4xx_hal_dac.c **** /**
1556:stm/stm32l4xx/STM32L4xx_HAL_Driver/Src/stm32l4xx_hal_dac.c ****   * @brief  Unregister a User DAC Callback
1557:stm/stm32l4xx/STM32L4xx_HAL_Driver/Src/stm32l4xx_hal_dac.c ****   *         DAC Callback is redirected to the weak (overridden) predefined callback
1558:stm/stm32l4xx/STM32L4xx_HAL_Driver/Src/stm32l4xx_hal_dac.c ****   * @param  hdac DAC handle
1559:stm/stm32l4xx/STM32L4xx_HAL_Driver/Src/stm32l4xx_hal_dac.c ****   * @param  CallbackID ID of the callback to be unregistered
1560:stm/stm32l4xx/STM32L4xx_HAL_Driver/Src/stm32l4xx_hal_dac.c ****   *         This parameter can be one of the following values:
1561:stm/stm32l4xx/STM32L4xx_HAL_Driver/Src/stm32l4xx_hal_dac.c ****   *          @arg @ref HAL_DAC_CH1_COMPLETE_CB_ID          DAC CH1 transfer Complete Callback ID
1562:stm/stm32l4xx/STM32L4xx_HAL_Driver/Src/stm32l4xx_hal_dac.c ****   *          @arg @ref HAL_DAC_CH1_HALF_COMPLETE_CB_ID     DAC CH1 Half Complete Callback ID
1563:stm/stm32l4xx/STM32L4xx_HAL_Driver/Src/stm32l4xx_hal_dac.c ****   *          @arg @ref HAL_DAC_CH1_ERROR_ID                DAC CH1 Error Callback ID
1564:stm/stm32l4xx/STM32L4xx_HAL_Driver/Src/stm32l4xx_hal_dac.c ****   *          @arg @ref HAL_DAC_CH1_UNDERRUN_CB_ID          DAC CH1 UnderRun Callback ID
1565:stm/stm32l4xx/STM32L4xx_HAL_Driver/Src/stm32l4xx_hal_dac.c ****   *          @arg @ref HAL_DAC_CH2_COMPLETE_CB_ID          DAC CH2 Complete Callback ID
1566:stm/stm32l4xx/STM32L4xx_HAL_Driver/Src/stm32l4xx_hal_dac.c ****   *          @arg @ref HAL_DAC_CH2_HALF_COMPLETE_CB_ID     DAC CH2 Half Complete Callback ID
1567:stm/stm32l4xx/STM32L4xx_HAL_Driver/Src/stm32l4xx_hal_dac.c ****   *          @arg @ref HAL_DAC_CH2_ERROR_ID                DAC CH2 Error Callback ID
1568:stm/stm32l4xx/STM32L4xx_HAL_Driver/Src/stm32l4xx_hal_dac.c ****   *          @arg @ref HAL_DAC_CH2_UNDERRUN_CB_ID          DAC CH2 UnderRun Callback ID
1569:stm/stm32l4xx/STM32L4xx_HAL_Driver/Src/stm32l4xx_hal_dac.c ****   *          @arg @ref HAL_DAC_MSPINIT_CB_ID               DAC MSP Init Callback ID
1570:stm/stm32l4xx/STM32L4xx_HAL_Driver/Src/stm32l4xx_hal_dac.c ****   *          @arg @ref HAL_DAC_MSPDEINIT_CB_ID             DAC MSP DeInit Callback ID
1571:stm/stm32l4xx/STM32L4xx_HAL_Driver/Src/stm32l4xx_hal_dac.c ****   *          @arg @ref HAL_DAC_ALL_CB_ID                   DAC All callbacks
1572:stm/stm32l4xx/STM32L4xx_HAL_Driver/Src/stm32l4xx_hal_dac.c ****   * @retval status
ARM GAS  /tmp/cc1emfwg.s 			page 44


1573:stm/stm32l4xx/STM32L4xx_HAL_Driver/Src/stm32l4xx_hal_dac.c ****   */
1574:stm/stm32l4xx/STM32L4xx_HAL_Driver/Src/stm32l4xx_hal_dac.c **** HAL_StatusTypeDef HAL_DAC_UnRegisterCallback(DAC_HandleTypeDef *hdac, HAL_DAC_CallbackIDTypeDef Cal
1575:stm/stm32l4xx/STM32L4xx_HAL_Driver/Src/stm32l4xx_hal_dac.c **** {
1576:stm/stm32l4xx/STM32L4xx_HAL_Driver/Src/stm32l4xx_hal_dac.c ****   HAL_StatusTypeDef status = HAL_OK;
1577:stm/stm32l4xx/STM32L4xx_HAL_Driver/Src/stm32l4xx_hal_dac.c **** 
1578:stm/stm32l4xx/STM32L4xx_HAL_Driver/Src/stm32l4xx_hal_dac.c ****   /* Process locked */
1579:stm/stm32l4xx/STM32L4xx_HAL_Driver/Src/stm32l4xx_hal_dac.c ****   __HAL_LOCK(hdac);
1580:stm/stm32l4xx/STM32L4xx_HAL_Driver/Src/stm32l4xx_hal_dac.c **** 
1581:stm/stm32l4xx/STM32L4xx_HAL_Driver/Src/stm32l4xx_hal_dac.c ****   if (hdac->State == HAL_DAC_STATE_READY)
1582:stm/stm32l4xx/STM32L4xx_HAL_Driver/Src/stm32l4xx_hal_dac.c ****   {
1583:stm/stm32l4xx/STM32L4xx_HAL_Driver/Src/stm32l4xx_hal_dac.c ****     switch (CallbackID)
1584:stm/stm32l4xx/STM32L4xx_HAL_Driver/Src/stm32l4xx_hal_dac.c ****     {
1585:stm/stm32l4xx/STM32L4xx_HAL_Driver/Src/stm32l4xx_hal_dac.c ****     case HAL_DAC_CH1_COMPLETE_CB_ID :
1586:stm/stm32l4xx/STM32L4xx_HAL_Driver/Src/stm32l4xx_hal_dac.c ****       hdac->ConvCpltCallbackCh1 = HAL_DAC_ConvCpltCallbackCh1;
1587:stm/stm32l4xx/STM32L4xx_HAL_Driver/Src/stm32l4xx_hal_dac.c ****       break;
1588:stm/stm32l4xx/STM32L4xx_HAL_Driver/Src/stm32l4xx_hal_dac.c ****     case HAL_DAC_CH1_HALF_COMPLETE_CB_ID :
1589:stm/stm32l4xx/STM32L4xx_HAL_Driver/Src/stm32l4xx_hal_dac.c ****       hdac->ConvHalfCpltCallbackCh1 = HAL_DAC_ConvHalfCpltCallbackCh1;
1590:stm/stm32l4xx/STM32L4xx_HAL_Driver/Src/stm32l4xx_hal_dac.c ****       break;
1591:stm/stm32l4xx/STM32L4xx_HAL_Driver/Src/stm32l4xx_hal_dac.c ****     case HAL_DAC_CH1_ERROR_ID :
1592:stm/stm32l4xx/STM32L4xx_HAL_Driver/Src/stm32l4xx_hal_dac.c ****       hdac->ErrorCallbackCh1 = HAL_DAC_ErrorCallbackCh1;
1593:stm/stm32l4xx/STM32L4xx_HAL_Driver/Src/stm32l4xx_hal_dac.c ****       break;
1594:stm/stm32l4xx/STM32L4xx_HAL_Driver/Src/stm32l4xx_hal_dac.c ****     case HAL_DAC_CH1_UNDERRUN_CB_ID :
1595:stm/stm32l4xx/STM32L4xx_HAL_Driver/Src/stm32l4xx_hal_dac.c ****       hdac->DMAUnderrunCallbackCh1 = HAL_DAC_DMAUnderrunCallbackCh1;
1596:stm/stm32l4xx/STM32L4xx_HAL_Driver/Src/stm32l4xx_hal_dac.c ****       break;
1597:stm/stm32l4xx/STM32L4xx_HAL_Driver/Src/stm32l4xx_hal_dac.c **** #if defined (STM32L431xx) || defined (STM32L432xx) || defined (STM32L433xx) || defined (STM32L442xx
1598:stm/stm32l4xx/STM32L4xx_HAL_Driver/Src/stm32l4xx_hal_dac.c ****     defined (STM32L471xx) || defined (STM32L475xx) || defined (STM32L476xx) || defined (STM32L485xx
1599:stm/stm32l4xx/STM32L4xx_HAL_Driver/Src/stm32l4xx_hal_dac.c ****     defined (STM32L4P5xx) || defined (STM32L4Q5xx) || \
1600:stm/stm32l4xx/STM32L4xx_HAL_Driver/Src/stm32l4xx_hal_dac.c ****     defined (STM32L4R5xx) || defined (STM32L4R7xx) || defined (STM32L4R9xx) || defined (STM32L4S5xx
1601:stm/stm32l4xx/STM32L4xx_HAL_Driver/Src/stm32l4xx_hal_dac.c ****     case HAL_DAC_CH2_COMPLETE_CB_ID :
1602:stm/stm32l4xx/STM32L4xx_HAL_Driver/Src/stm32l4xx_hal_dac.c ****       hdac->ConvCpltCallbackCh2 = HAL_DACEx_ConvCpltCallbackCh2;
1603:stm/stm32l4xx/STM32L4xx_HAL_Driver/Src/stm32l4xx_hal_dac.c ****       break;
1604:stm/stm32l4xx/STM32L4xx_HAL_Driver/Src/stm32l4xx_hal_dac.c ****     case HAL_DAC_CH2_HALF_COMPLETE_CB_ID :
1605:stm/stm32l4xx/STM32L4xx_HAL_Driver/Src/stm32l4xx_hal_dac.c ****       hdac->ConvHalfCpltCallbackCh2 = HAL_DACEx_ConvHalfCpltCallbackCh2;
1606:stm/stm32l4xx/STM32L4xx_HAL_Driver/Src/stm32l4xx_hal_dac.c ****       break;
1607:stm/stm32l4xx/STM32L4xx_HAL_Driver/Src/stm32l4xx_hal_dac.c ****     case HAL_DAC_CH2_ERROR_ID :
1608:stm/stm32l4xx/STM32L4xx_HAL_Driver/Src/stm32l4xx_hal_dac.c ****       hdac->ErrorCallbackCh2 = HAL_DACEx_ErrorCallbackCh2;
1609:stm/stm32l4xx/STM32L4xx_HAL_Driver/Src/stm32l4xx_hal_dac.c ****       break;
1610:stm/stm32l4xx/STM32L4xx_HAL_Driver/Src/stm32l4xx_hal_dac.c ****     case HAL_DAC_CH2_UNDERRUN_CB_ID :
1611:stm/stm32l4xx/STM32L4xx_HAL_Driver/Src/stm32l4xx_hal_dac.c ****       hdac->DMAUnderrunCallbackCh2 = HAL_DACEx_DMAUnderrunCallbackCh2;
1612:stm/stm32l4xx/STM32L4xx_HAL_Driver/Src/stm32l4xx_hal_dac.c ****       break;
1613:stm/stm32l4xx/STM32L4xx_HAL_Driver/Src/stm32l4xx_hal_dac.c **** #endif  /* STM32L431xx STM32L432xx STM32L433xx STM32L442xx STM32L443xx                         */
1614:stm/stm32l4xx/STM32L4xx_HAL_Driver/Src/stm32l4xx_hal_dac.c ****         /* STM32L471xx STM32L475xx STM32L476xx STM32L485xx STM32L486xx STM32L496xx STM32L4A6xx */
1615:stm/stm32l4xx/STM32L4xx_HAL_Driver/Src/stm32l4xx_hal_dac.c ****         /* STM32L4P5xx STM32L4Q5xx                                                             */
1616:stm/stm32l4xx/STM32L4xx_HAL_Driver/Src/stm32l4xx_hal_dac.c ****         /* STM32L4R5xx STM32L4R7xx STM32L4R9xx STM32L4S5xx STM32L4S7xx STM32L4S9xx             */
1617:stm/stm32l4xx/STM32L4xx_HAL_Driver/Src/stm32l4xx_hal_dac.c ****     case HAL_DAC_MSPINIT_CB_ID :
1618:stm/stm32l4xx/STM32L4xx_HAL_Driver/Src/stm32l4xx_hal_dac.c ****       hdac->MspInitCallback = HAL_DAC_MspInit;
1619:stm/stm32l4xx/STM32L4xx_HAL_Driver/Src/stm32l4xx_hal_dac.c ****       break;
1620:stm/stm32l4xx/STM32L4xx_HAL_Driver/Src/stm32l4xx_hal_dac.c ****     case HAL_DAC_MSPDEINIT_CB_ID :
1621:stm/stm32l4xx/STM32L4xx_HAL_Driver/Src/stm32l4xx_hal_dac.c ****       hdac->MspDeInitCallback = HAL_DAC_MspDeInit;
1622:stm/stm32l4xx/STM32L4xx_HAL_Driver/Src/stm32l4xx_hal_dac.c ****       break;
1623:stm/stm32l4xx/STM32L4xx_HAL_Driver/Src/stm32l4xx_hal_dac.c ****     case HAL_DAC_ALL_CB_ID :
1624:stm/stm32l4xx/STM32L4xx_HAL_Driver/Src/stm32l4xx_hal_dac.c ****       hdac->ConvCpltCallbackCh1 = HAL_DAC_ConvCpltCallbackCh1;
1625:stm/stm32l4xx/STM32L4xx_HAL_Driver/Src/stm32l4xx_hal_dac.c ****       hdac->ConvHalfCpltCallbackCh1 = HAL_DAC_ConvHalfCpltCallbackCh1;
1626:stm/stm32l4xx/STM32L4xx_HAL_Driver/Src/stm32l4xx_hal_dac.c ****       hdac->ErrorCallbackCh1 = HAL_DAC_ErrorCallbackCh1;
1627:stm/stm32l4xx/STM32L4xx_HAL_Driver/Src/stm32l4xx_hal_dac.c ****       hdac->DMAUnderrunCallbackCh1 = HAL_DAC_DMAUnderrunCallbackCh1;
1628:stm/stm32l4xx/STM32L4xx_HAL_Driver/Src/stm32l4xx_hal_dac.c **** #if defined (STM32L431xx) || defined (STM32L432xx) || defined (STM32L433xx) || defined (STM32L442xx
1629:stm/stm32l4xx/STM32L4xx_HAL_Driver/Src/stm32l4xx_hal_dac.c ****     defined (STM32L471xx) || defined (STM32L475xx) || defined (STM32L476xx) || defined (STM32L485xx
ARM GAS  /tmp/cc1emfwg.s 			page 45


1630:stm/stm32l4xx/STM32L4xx_HAL_Driver/Src/stm32l4xx_hal_dac.c ****     defined (STM32L4P5xx) || defined (STM32L4Q5xx) || \
1631:stm/stm32l4xx/STM32L4xx_HAL_Driver/Src/stm32l4xx_hal_dac.c ****     defined (STM32L4R5xx) || defined (STM32L4R7xx) || defined (STM32L4R9xx) || defined (STM32L4S5xx
1632:stm/stm32l4xx/STM32L4xx_HAL_Driver/Src/stm32l4xx_hal_dac.c ****       hdac->ConvCpltCallbackCh2 = HAL_DACEx_ConvCpltCallbackCh2;
1633:stm/stm32l4xx/STM32L4xx_HAL_Driver/Src/stm32l4xx_hal_dac.c ****       hdac->ConvHalfCpltCallbackCh2 = HAL_DACEx_ConvHalfCpltCallbackCh2;
1634:stm/stm32l4xx/STM32L4xx_HAL_Driver/Src/stm32l4xx_hal_dac.c ****       hdac->ErrorCallbackCh2 = HAL_DACEx_ErrorCallbackCh2;
1635:stm/stm32l4xx/STM32L4xx_HAL_Driver/Src/stm32l4xx_hal_dac.c ****       hdac->DMAUnderrunCallbackCh2 = HAL_DACEx_DMAUnderrunCallbackCh2;
1636:stm/stm32l4xx/STM32L4xx_HAL_Driver/Src/stm32l4xx_hal_dac.c **** #endif  /* STM32L431xx STM32L432xx STM32L433xx STM32L442xx STM32L443xx                         */
1637:stm/stm32l4xx/STM32L4xx_HAL_Driver/Src/stm32l4xx_hal_dac.c ****         /* STM32L471xx STM32L475xx STM32L476xx STM32L485xx STM32L486xx STM32L496xx STM32L4A6xx */
1638:stm/stm32l4xx/STM32L4xx_HAL_Driver/Src/stm32l4xx_hal_dac.c ****         /* STM32L4P5xx STM32L4Q5xx                                                             */
1639:stm/stm32l4xx/STM32L4xx_HAL_Driver/Src/stm32l4xx_hal_dac.c ****         /* STM32L4R5xx STM32L4R7xx STM32L4R9xx STM32L4S5xx STM32L4S7xx STM32L4S9xx             */
1640:stm/stm32l4xx/STM32L4xx_HAL_Driver/Src/stm32l4xx_hal_dac.c ****       hdac->MspInitCallback = HAL_DAC_MspInit;
1641:stm/stm32l4xx/STM32L4xx_HAL_Driver/Src/stm32l4xx_hal_dac.c ****       hdac->MspDeInitCallback = HAL_DAC_MspDeInit;
1642:stm/stm32l4xx/STM32L4xx_HAL_Driver/Src/stm32l4xx_hal_dac.c ****       break;
1643:stm/stm32l4xx/STM32L4xx_HAL_Driver/Src/stm32l4xx_hal_dac.c ****     default :
1644:stm/stm32l4xx/STM32L4xx_HAL_Driver/Src/stm32l4xx_hal_dac.c ****       /* Update the error code */
1645:stm/stm32l4xx/STM32L4xx_HAL_Driver/Src/stm32l4xx_hal_dac.c ****       hdac->ErrorCode |= HAL_DAC_ERROR_INVALID_CALLBACK;
1646:stm/stm32l4xx/STM32L4xx_HAL_Driver/Src/stm32l4xx_hal_dac.c ****       /* update return status */
1647:stm/stm32l4xx/STM32L4xx_HAL_Driver/Src/stm32l4xx_hal_dac.c ****       status =  HAL_ERROR;
1648:stm/stm32l4xx/STM32L4xx_HAL_Driver/Src/stm32l4xx_hal_dac.c ****       break;
1649:stm/stm32l4xx/STM32L4xx_HAL_Driver/Src/stm32l4xx_hal_dac.c ****     }
1650:stm/stm32l4xx/STM32L4xx_HAL_Driver/Src/stm32l4xx_hal_dac.c ****   }
1651:stm/stm32l4xx/STM32L4xx_HAL_Driver/Src/stm32l4xx_hal_dac.c ****   else if (hdac->State == HAL_DAC_STATE_RESET)
1652:stm/stm32l4xx/STM32L4xx_HAL_Driver/Src/stm32l4xx_hal_dac.c ****   {
1653:stm/stm32l4xx/STM32L4xx_HAL_Driver/Src/stm32l4xx_hal_dac.c ****     switch (CallbackID)
1654:stm/stm32l4xx/STM32L4xx_HAL_Driver/Src/stm32l4xx_hal_dac.c ****     {
1655:stm/stm32l4xx/STM32L4xx_HAL_Driver/Src/stm32l4xx_hal_dac.c ****     case HAL_DAC_MSPINIT_CB_ID :
1656:stm/stm32l4xx/STM32L4xx_HAL_Driver/Src/stm32l4xx_hal_dac.c ****       hdac->MspInitCallback = HAL_DAC_MspInit;
1657:stm/stm32l4xx/STM32L4xx_HAL_Driver/Src/stm32l4xx_hal_dac.c ****       break;
1658:stm/stm32l4xx/STM32L4xx_HAL_Driver/Src/stm32l4xx_hal_dac.c ****     case HAL_DAC_MSPDEINIT_CB_ID :
1659:stm/stm32l4xx/STM32L4xx_HAL_Driver/Src/stm32l4xx_hal_dac.c ****       hdac->MspDeInitCallback = HAL_DAC_MspDeInit;
1660:stm/stm32l4xx/STM32L4xx_HAL_Driver/Src/stm32l4xx_hal_dac.c ****       break;
1661:stm/stm32l4xx/STM32L4xx_HAL_Driver/Src/stm32l4xx_hal_dac.c ****     default :
1662:stm/stm32l4xx/STM32L4xx_HAL_Driver/Src/stm32l4xx_hal_dac.c ****       /* Update the error code */
1663:stm/stm32l4xx/STM32L4xx_HAL_Driver/Src/stm32l4xx_hal_dac.c ****       hdac->ErrorCode |= HAL_DAC_ERROR_INVALID_CALLBACK;
1664:stm/stm32l4xx/STM32L4xx_HAL_Driver/Src/stm32l4xx_hal_dac.c ****       /* update return status */
1665:stm/stm32l4xx/STM32L4xx_HAL_Driver/Src/stm32l4xx_hal_dac.c ****       status =  HAL_ERROR;
1666:stm/stm32l4xx/STM32L4xx_HAL_Driver/Src/stm32l4xx_hal_dac.c ****       break;
1667:stm/stm32l4xx/STM32L4xx_HAL_Driver/Src/stm32l4xx_hal_dac.c ****     }
1668:stm/stm32l4xx/STM32L4xx_HAL_Driver/Src/stm32l4xx_hal_dac.c ****   }
1669:stm/stm32l4xx/STM32L4xx_HAL_Driver/Src/stm32l4xx_hal_dac.c ****   else
1670:stm/stm32l4xx/STM32L4xx_HAL_Driver/Src/stm32l4xx_hal_dac.c ****   {
1671:stm/stm32l4xx/STM32L4xx_HAL_Driver/Src/stm32l4xx_hal_dac.c ****     /* Update the error code */
1672:stm/stm32l4xx/STM32L4xx_HAL_Driver/Src/stm32l4xx_hal_dac.c ****     hdac->ErrorCode |= HAL_DAC_ERROR_INVALID_CALLBACK;
1673:stm/stm32l4xx/STM32L4xx_HAL_Driver/Src/stm32l4xx_hal_dac.c ****     /* update return status */
1674:stm/stm32l4xx/STM32L4xx_HAL_Driver/Src/stm32l4xx_hal_dac.c ****     status =  HAL_ERROR;
1675:stm/stm32l4xx/STM32L4xx_HAL_Driver/Src/stm32l4xx_hal_dac.c ****   }
1676:stm/stm32l4xx/STM32L4xx_HAL_Driver/Src/stm32l4xx_hal_dac.c **** 
1677:stm/stm32l4xx/STM32L4xx_HAL_Driver/Src/stm32l4xx_hal_dac.c ****   /* Release Lock */
1678:stm/stm32l4xx/STM32L4xx_HAL_Driver/Src/stm32l4xx_hal_dac.c ****   __HAL_UNLOCK(hdac);
1679:stm/stm32l4xx/STM32L4xx_HAL_Driver/Src/stm32l4xx_hal_dac.c ****   return status;
1680:stm/stm32l4xx/STM32L4xx_HAL_Driver/Src/stm32l4xx_hal_dac.c **** }
1681:stm/stm32l4xx/STM32L4xx_HAL_Driver/Src/stm32l4xx_hal_dac.c **** #endif /* USE_HAL_DAC_REGISTER_CALLBACKS */
1682:stm/stm32l4xx/STM32L4xx_HAL_Driver/Src/stm32l4xx_hal_dac.c **** 
1683:stm/stm32l4xx/STM32L4xx_HAL_Driver/Src/stm32l4xx_hal_dac.c **** /**
1684:stm/stm32l4xx/STM32L4xx_HAL_Driver/Src/stm32l4xx_hal_dac.c ****   * @}
1685:stm/stm32l4xx/STM32L4xx_HAL_Driver/Src/stm32l4xx_hal_dac.c ****   */
1686:stm/stm32l4xx/STM32L4xx_HAL_Driver/Src/stm32l4xx_hal_dac.c **** 
ARM GAS  /tmp/cc1emfwg.s 			page 46


1687:stm/stm32l4xx/STM32L4xx_HAL_Driver/Src/stm32l4xx_hal_dac.c **** /**
1688:stm/stm32l4xx/STM32L4xx_HAL_Driver/Src/stm32l4xx_hal_dac.c ****   * @}
1689:stm/stm32l4xx/STM32L4xx_HAL_Driver/Src/stm32l4xx_hal_dac.c ****   */
1690:stm/stm32l4xx/STM32L4xx_HAL_Driver/Src/stm32l4xx_hal_dac.c **** 
1691:stm/stm32l4xx/STM32L4xx_HAL_Driver/Src/stm32l4xx_hal_dac.c **** /** @addtogroup DAC_Private_Functions
1692:stm/stm32l4xx/STM32L4xx_HAL_Driver/Src/stm32l4xx_hal_dac.c ****   * @{
1693:stm/stm32l4xx/STM32L4xx_HAL_Driver/Src/stm32l4xx_hal_dac.c ****   */
1694:stm/stm32l4xx/STM32L4xx_HAL_Driver/Src/stm32l4xx_hal_dac.c **** 
1695:stm/stm32l4xx/STM32L4xx_HAL_Driver/Src/stm32l4xx_hal_dac.c **** /**
1696:stm/stm32l4xx/STM32L4xx_HAL_Driver/Src/stm32l4xx_hal_dac.c ****   * @brief  DMA conversion complete callback.
1697:stm/stm32l4xx/STM32L4xx_HAL_Driver/Src/stm32l4xx_hal_dac.c ****   * @param  hdma pointer to a DMA_HandleTypeDef structure that contains
1698:stm/stm32l4xx/STM32L4xx_HAL_Driver/Src/stm32l4xx_hal_dac.c ****   *                the configuration information for the specified DMA module.
1699:stm/stm32l4xx/STM32L4xx_HAL_Driver/Src/stm32l4xx_hal_dac.c ****   * @retval None
1700:stm/stm32l4xx/STM32L4xx_HAL_Driver/Src/stm32l4xx_hal_dac.c ****   */
1701:stm/stm32l4xx/STM32L4xx_HAL_Driver/Src/stm32l4xx_hal_dac.c **** void DAC_DMAConvCpltCh1(DMA_HandleTypeDef *hdma)
1702:stm/stm32l4xx/STM32L4xx_HAL_Driver/Src/stm32l4xx_hal_dac.c **** {
 801              		.loc 1 1702 1 is_stmt 1 view -0
 802              		.cfi_startproc
 803              		@ args = 0, pretend = 0, frame = 0
 804              		@ frame_needed = 0, uses_anonymous_args = 0
 805              		.loc 1 1702 1 is_stmt 0 view .LVU223
 806 0000 10B5     		push	{r4, lr}
 807              	.LCFI17:
 808              		.cfi_def_cfa_offset 8
 809              		.cfi_offset 4, -8
 810              		.cfi_offset 14, -4
1703:stm/stm32l4xx/STM32L4xx_HAL_Driver/Src/stm32l4xx_hal_dac.c ****   DAC_HandleTypeDef *hdac = (DAC_HandleTypeDef *)((DMA_HandleTypeDef *)hdma)->Parent;
 811              		.loc 1 1703 3 is_stmt 1 view .LVU224
 812              		.loc 1 1703 22 is_stmt 0 view .LVU225
 813 0002 846A     		ldr	r4, [r0, #40]
 814              	.LVL58:
1704:stm/stm32l4xx/STM32L4xx_HAL_Driver/Src/stm32l4xx_hal_dac.c **** 
1705:stm/stm32l4xx/STM32L4xx_HAL_Driver/Src/stm32l4xx_hal_dac.c **** #if (USE_HAL_DAC_REGISTER_CALLBACKS == 1)
1706:stm/stm32l4xx/STM32L4xx_HAL_Driver/Src/stm32l4xx_hal_dac.c ****   hdac->ConvCpltCallbackCh1(hdac);
1707:stm/stm32l4xx/STM32L4xx_HAL_Driver/Src/stm32l4xx_hal_dac.c **** #else
1708:stm/stm32l4xx/STM32L4xx_HAL_Driver/Src/stm32l4xx_hal_dac.c ****   HAL_DAC_ConvCpltCallbackCh1(hdac);
 815              		.loc 1 1708 3 is_stmt 1 view .LVU226
 816 0004 2046     		mov	r0, r4
 817              	.LVL59:
 818              		.loc 1 1708 3 is_stmt 0 view .LVU227
 819 0006 FFF7FEFF 		bl	HAL_DAC_ConvCpltCallbackCh1
 820              	.LVL60:
1709:stm/stm32l4xx/STM32L4xx_HAL_Driver/Src/stm32l4xx_hal_dac.c **** #endif /* USE_HAL_DAC_REGISTER_CALLBACKS */
1710:stm/stm32l4xx/STM32L4xx_HAL_Driver/Src/stm32l4xx_hal_dac.c **** 
1711:stm/stm32l4xx/STM32L4xx_HAL_Driver/Src/stm32l4xx_hal_dac.c ****   hdac->State = HAL_DAC_STATE_READY;
 821              		.loc 1 1711 3 is_stmt 1 view .LVU228
 822              		.loc 1 1711 15 is_stmt 0 view .LVU229
 823 000a 0123     		movs	r3, #1
 824 000c 2371     		strb	r3, [r4, #4]
1712:stm/stm32l4xx/STM32L4xx_HAL_Driver/Src/stm32l4xx_hal_dac.c **** }
 825              		.loc 1 1712 1 view .LVU230
 826 000e 10BD     		pop	{r4, pc}
 827              		.loc 1 1712 1 view .LVU231
 828              		.cfi_endproc
 829              	.LFE306:
 831              		.section	.text.HAL_DAC_ConvHalfCpltCallbackCh1,"ax",%progbits
 832              		.align	1
ARM GAS  /tmp/cc1emfwg.s 			page 47


 833              		.weak	HAL_DAC_ConvHalfCpltCallbackCh1
 834              		.syntax unified
 835              		.thumb
 836              		.thumb_func
 838              	HAL_DAC_ConvHalfCpltCallbackCh1:
 839              	.LVL61:
 840              	.LFB299:
1084:stm/stm32l4xx/STM32L4xx_HAL_Driver/Src/stm32l4xx_hal_dac.c ****   /* Prevent unused argument(s) compilation warning */
 841              		.loc 1 1084 1 is_stmt 1 view -0
 842              		.cfi_startproc
 843              		@ args = 0, pretend = 0, frame = 0
 844              		@ frame_needed = 0, uses_anonymous_args = 0
 845              		@ link register save eliminated.
1086:stm/stm32l4xx/STM32L4xx_HAL_Driver/Src/stm32l4xx_hal_dac.c **** 
 846              		.loc 1 1086 3 view .LVU233
1091:stm/stm32l4xx/STM32L4xx_HAL_Driver/Src/stm32l4xx_hal_dac.c **** 
 847              		.loc 1 1091 1 is_stmt 0 view .LVU234
 848 0000 7047     		bx	lr
 849              		.cfi_endproc
 850              	.LFE299:
 852              		.section	.text.DAC_DMAHalfConvCpltCh1,"ax",%progbits
 853              		.align	1
 854              		.global	DAC_DMAHalfConvCpltCh1
 855              		.syntax unified
 856              		.thumb
 857              		.thumb_func
 859              	DAC_DMAHalfConvCpltCh1:
 860              	.LVL62:
 861              	.LFB307:
1713:stm/stm32l4xx/STM32L4xx_HAL_Driver/Src/stm32l4xx_hal_dac.c **** 
1714:stm/stm32l4xx/STM32L4xx_HAL_Driver/Src/stm32l4xx_hal_dac.c **** /**
1715:stm/stm32l4xx/STM32L4xx_HAL_Driver/Src/stm32l4xx_hal_dac.c ****   * @brief  DMA half transfer complete callback.
1716:stm/stm32l4xx/STM32L4xx_HAL_Driver/Src/stm32l4xx_hal_dac.c ****   * @param  hdma pointer to a DMA_HandleTypeDef structure that contains
1717:stm/stm32l4xx/STM32L4xx_HAL_Driver/Src/stm32l4xx_hal_dac.c ****   *                the configuration information for the specified DMA module.
1718:stm/stm32l4xx/STM32L4xx_HAL_Driver/Src/stm32l4xx_hal_dac.c ****   * @retval None
1719:stm/stm32l4xx/STM32L4xx_HAL_Driver/Src/stm32l4xx_hal_dac.c ****   */
1720:stm/stm32l4xx/STM32L4xx_HAL_Driver/Src/stm32l4xx_hal_dac.c **** void DAC_DMAHalfConvCpltCh1(DMA_HandleTypeDef *hdma)
1721:stm/stm32l4xx/STM32L4xx_HAL_Driver/Src/stm32l4xx_hal_dac.c **** {
 862              		.loc 1 1721 1 is_stmt 1 view -0
 863              		.cfi_startproc
 864              		@ args = 0, pretend = 0, frame = 0
 865              		@ frame_needed = 0, uses_anonymous_args = 0
 866              		.loc 1 1721 1 is_stmt 0 view .LVU236
 867 0000 08B5     		push	{r3, lr}
 868              	.LCFI18:
 869              		.cfi_def_cfa_offset 8
 870              		.cfi_offset 3, -8
 871              		.cfi_offset 14, -4
1722:stm/stm32l4xx/STM32L4xx_HAL_Driver/Src/stm32l4xx_hal_dac.c ****   DAC_HandleTypeDef *hdac = (DAC_HandleTypeDef *)((DMA_HandleTypeDef *)hdma)->Parent;
 872              		.loc 1 1722 3 is_stmt 1 view .LVU237
 873              	.LVL63:
1723:stm/stm32l4xx/STM32L4xx_HAL_Driver/Src/stm32l4xx_hal_dac.c ****   /* Conversion complete callback */
1724:stm/stm32l4xx/STM32L4xx_HAL_Driver/Src/stm32l4xx_hal_dac.c **** #if (USE_HAL_DAC_REGISTER_CALLBACKS == 1)
1725:stm/stm32l4xx/STM32L4xx_HAL_Driver/Src/stm32l4xx_hal_dac.c ****   hdac->ConvHalfCpltCallbackCh1(hdac);
1726:stm/stm32l4xx/STM32L4xx_HAL_Driver/Src/stm32l4xx_hal_dac.c **** #else
1727:stm/stm32l4xx/STM32L4xx_HAL_Driver/Src/stm32l4xx_hal_dac.c ****   HAL_DAC_ConvHalfCpltCallbackCh1(hdac);
 874              		.loc 1 1727 3 view .LVU238
ARM GAS  /tmp/cc1emfwg.s 			page 48


 875 0002 806A     		ldr	r0, [r0, #40]
 876              	.LVL64:
 877              		.loc 1 1727 3 is_stmt 0 view .LVU239
 878 0004 FFF7FEFF 		bl	HAL_DAC_ConvHalfCpltCallbackCh1
 879              	.LVL65:
1728:stm/stm32l4xx/STM32L4xx_HAL_Driver/Src/stm32l4xx_hal_dac.c **** #endif  /* USE_HAL_DAC_REGISTER_CALLBACKS */
1729:stm/stm32l4xx/STM32L4xx_HAL_Driver/Src/stm32l4xx_hal_dac.c **** }
 880              		.loc 1 1729 1 view .LVU240
 881 0008 08BD     		pop	{r3, pc}
 882              		.cfi_endproc
 883              	.LFE307:
 885              		.section	.text.HAL_DAC_ErrorCallbackCh1,"ax",%progbits
 886              		.align	1
 887              		.weak	HAL_DAC_ErrorCallbackCh1
 888              		.syntax unified
 889              		.thumb
 890              		.thumb_func
 892              	HAL_DAC_ErrorCallbackCh1:
 893              	.LVL66:
 894              	.LFB300:
1100:stm/stm32l4xx/STM32L4xx_HAL_Driver/Src/stm32l4xx_hal_dac.c ****   /* Prevent unused argument(s) compilation warning */
 895              		.loc 1 1100 1 is_stmt 1 view -0
 896              		.cfi_startproc
 897              		@ args = 0, pretend = 0, frame = 0
 898              		@ frame_needed = 0, uses_anonymous_args = 0
 899              		@ link register save eliminated.
1102:stm/stm32l4xx/STM32L4xx_HAL_Driver/Src/stm32l4xx_hal_dac.c **** 
 900              		.loc 1 1102 3 view .LVU242
1107:stm/stm32l4xx/STM32L4xx_HAL_Driver/Src/stm32l4xx_hal_dac.c **** 
 901              		.loc 1 1107 1 is_stmt 0 view .LVU243
 902 0000 7047     		bx	lr
 903              		.cfi_endproc
 904              	.LFE300:
 906              		.section	.text.DAC_DMAErrorCh1,"ax",%progbits
 907              		.align	1
 908              		.global	DAC_DMAErrorCh1
 909              		.syntax unified
 910              		.thumb
 911              		.thumb_func
 913              	DAC_DMAErrorCh1:
 914              	.LVL67:
 915              	.LFB308:
1730:stm/stm32l4xx/STM32L4xx_HAL_Driver/Src/stm32l4xx_hal_dac.c **** 
1731:stm/stm32l4xx/STM32L4xx_HAL_Driver/Src/stm32l4xx_hal_dac.c **** /**
1732:stm/stm32l4xx/STM32L4xx_HAL_Driver/Src/stm32l4xx_hal_dac.c ****   * @brief  DMA error callback
1733:stm/stm32l4xx/STM32L4xx_HAL_Driver/Src/stm32l4xx_hal_dac.c ****   * @param  hdma pointer to a DMA_HandleTypeDef structure that contains
1734:stm/stm32l4xx/STM32L4xx_HAL_Driver/Src/stm32l4xx_hal_dac.c ****   *                the configuration information for the specified DMA module.
1735:stm/stm32l4xx/STM32L4xx_HAL_Driver/Src/stm32l4xx_hal_dac.c ****   * @retval None
1736:stm/stm32l4xx/STM32L4xx_HAL_Driver/Src/stm32l4xx_hal_dac.c ****   */
1737:stm/stm32l4xx/STM32L4xx_HAL_Driver/Src/stm32l4xx_hal_dac.c **** void DAC_DMAErrorCh1(DMA_HandleTypeDef *hdma)
1738:stm/stm32l4xx/STM32L4xx_HAL_Driver/Src/stm32l4xx_hal_dac.c **** {
 916              		.loc 1 1738 1 is_stmt 1 view -0
 917              		.cfi_startproc
 918              		@ args = 0, pretend = 0, frame = 0
 919              		@ frame_needed = 0, uses_anonymous_args = 0
 920              		.loc 1 1738 1 is_stmt 0 view .LVU245
 921 0000 10B5     		push	{r4, lr}
ARM GAS  /tmp/cc1emfwg.s 			page 49


 922              	.LCFI19:
 923              		.cfi_def_cfa_offset 8
 924              		.cfi_offset 4, -8
 925              		.cfi_offset 14, -4
1739:stm/stm32l4xx/STM32L4xx_HAL_Driver/Src/stm32l4xx_hal_dac.c ****   DAC_HandleTypeDef *hdac = (DAC_HandleTypeDef *)((DMA_HandleTypeDef *)hdma)->Parent;
 926              		.loc 1 1739 3 is_stmt 1 view .LVU246
 927              		.loc 1 1739 22 is_stmt 0 view .LVU247
 928 0002 846A     		ldr	r4, [r0, #40]
 929              	.LVL68:
1740:stm/stm32l4xx/STM32L4xx_HAL_Driver/Src/stm32l4xx_hal_dac.c **** 
1741:stm/stm32l4xx/STM32L4xx_HAL_Driver/Src/stm32l4xx_hal_dac.c ****   /* Set DAC error code to DMA error */
1742:stm/stm32l4xx/STM32L4xx_HAL_Driver/Src/stm32l4xx_hal_dac.c ****   hdac->ErrorCode |= HAL_DAC_ERROR_DMA;
 930              		.loc 1 1742 3 is_stmt 1 view .LVU248
 931              		.loc 1 1742 7 is_stmt 0 view .LVU249
 932 0004 2369     		ldr	r3, [r4, #16]
 933              		.loc 1 1742 19 view .LVU250
 934 0006 43F00403 		orr	r3, r3, #4
 935 000a 2361     		str	r3, [r4, #16]
1743:stm/stm32l4xx/STM32L4xx_HAL_Driver/Src/stm32l4xx_hal_dac.c **** 
1744:stm/stm32l4xx/STM32L4xx_HAL_Driver/Src/stm32l4xx_hal_dac.c **** #if (USE_HAL_DAC_REGISTER_CALLBACKS == 1)
1745:stm/stm32l4xx/STM32L4xx_HAL_Driver/Src/stm32l4xx_hal_dac.c ****   hdac->ErrorCallbackCh1(hdac);
1746:stm/stm32l4xx/STM32L4xx_HAL_Driver/Src/stm32l4xx_hal_dac.c **** #else
1747:stm/stm32l4xx/STM32L4xx_HAL_Driver/Src/stm32l4xx_hal_dac.c ****   HAL_DAC_ErrorCallbackCh1(hdac);
 936              		.loc 1 1747 3 is_stmt 1 view .LVU251
 937 000c 2046     		mov	r0, r4
 938              	.LVL69:
 939              		.loc 1 1747 3 is_stmt 0 view .LVU252
 940 000e FFF7FEFF 		bl	HAL_DAC_ErrorCallbackCh1
 941              	.LVL70:
1748:stm/stm32l4xx/STM32L4xx_HAL_Driver/Src/stm32l4xx_hal_dac.c **** #endif /* USE_HAL_DAC_REGISTER_CALLBACKS */
1749:stm/stm32l4xx/STM32L4xx_HAL_Driver/Src/stm32l4xx_hal_dac.c **** 
1750:stm/stm32l4xx/STM32L4xx_HAL_Driver/Src/stm32l4xx_hal_dac.c ****   hdac->State = HAL_DAC_STATE_READY;
 942              		.loc 1 1750 3 is_stmt 1 view .LVU253
 943              		.loc 1 1750 15 is_stmt 0 view .LVU254
 944 0012 0123     		movs	r3, #1
 945 0014 2371     		strb	r3, [r4, #4]
1751:stm/stm32l4xx/STM32L4xx_HAL_Driver/Src/stm32l4xx_hal_dac.c **** }
 946              		.loc 1 1751 1 view .LVU255
 947 0016 10BD     		pop	{r4, pc}
 948              		.loc 1 1751 1 view .LVU256
 949              		.cfi_endproc
 950              	.LFE308:
 952              		.section	.text.HAL_DAC_DMAUnderrunCallbackCh1,"ax",%progbits
 953              		.align	1
 954              		.weak	HAL_DAC_DMAUnderrunCallbackCh1
 955              		.syntax unified
 956              		.thumb
 957              		.thumb_func
 959              	HAL_DAC_DMAUnderrunCallbackCh1:
 960              	.LVL71:
 961              	.LFB301:
1116:stm/stm32l4xx/STM32L4xx_HAL_Driver/Src/stm32l4xx_hal_dac.c ****   /* Prevent unused argument(s) compilation warning */
 962              		.loc 1 1116 1 is_stmt 1 view -0
 963              		.cfi_startproc
 964              		@ args = 0, pretend = 0, frame = 0
 965              		@ frame_needed = 0, uses_anonymous_args = 0
 966              		@ link register save eliminated.
ARM GAS  /tmp/cc1emfwg.s 			page 50


1118:stm/stm32l4xx/STM32L4xx_HAL_Driver/Src/stm32l4xx_hal_dac.c **** 
 967              		.loc 1 1118 3 view .LVU258
1123:stm/stm32l4xx/STM32L4xx_HAL_Driver/Src/stm32l4xx_hal_dac.c **** 
 968              		.loc 1 1123 1 is_stmt 0 view .LVU259
 969 0000 7047     		bx	lr
 970              		.cfi_endproc
 971              	.LFE301:
 973              		.section	.text.HAL_DAC_IRQHandler,"ax",%progbits
 974              		.align	1
 975              		.global	HAL_DAC_IRQHandler
 976              		.syntax unified
 977              		.thumb
 978              		.thumb_func
 980              	HAL_DAC_IRQHandler:
 981              	.LVL72:
 982              	.LFB296:
 958:stm/stm32l4xx/STM32L4xx_HAL_Driver/Src/stm32l4xx_hal_dac.c ****   if (__HAL_DAC_GET_IT_SOURCE(hdac, DAC_IT_DMAUDR1))
 983              		.loc 1 958 1 is_stmt 1 view -0
 984              		.cfi_startproc
 985              		@ args = 0, pretend = 0, frame = 0
 986              		@ frame_needed = 0, uses_anonymous_args = 0
 958:stm/stm32l4xx/STM32L4xx_HAL_Driver/Src/stm32l4xx_hal_dac.c ****   if (__HAL_DAC_GET_IT_SOURCE(hdac, DAC_IT_DMAUDR1))
 987              		.loc 1 958 1 is_stmt 0 view .LVU261
 988 0000 10B5     		push	{r4, lr}
 989              	.LCFI20:
 990              		.cfi_def_cfa_offset 8
 991              		.cfi_offset 4, -8
 992              		.cfi_offset 14, -4
 993 0002 0446     		mov	r4, r0
 959:stm/stm32l4xx/STM32L4xx_HAL_Driver/Src/stm32l4xx_hal_dac.c ****   {
 994              		.loc 1 959 3 is_stmt 1 view .LVU262
 959:stm/stm32l4xx/STM32L4xx_HAL_Driver/Src/stm32l4xx_hal_dac.c ****   {
 995              		.loc 1 959 7 is_stmt 0 view .LVU263
 996 0004 0368     		ldr	r3, [r0]
 997 0006 1A68     		ldr	r2, [r3]
 959:stm/stm32l4xx/STM32L4xx_HAL_Driver/Src/stm32l4xx_hal_dac.c ****   {
 998              		.loc 1 959 6 view .LVU264
 999 0008 12F4005F 		tst	r2, #8192
 1000 000c 03D0     		beq	.L69
 962:stm/stm32l4xx/STM32L4xx_HAL_Driver/Src/stm32l4xx_hal_dac.c ****     {
 1001              		.loc 1 962 5 is_stmt 1 view .LVU265
 962:stm/stm32l4xx/STM32L4xx_HAL_Driver/Src/stm32l4xx_hal_dac.c ****     {
 1002              		.loc 1 962 9 is_stmt 0 view .LVU266
 1003 000e 5A6B     		ldr	r2, [r3, #52]
 962:stm/stm32l4xx/STM32L4xx_HAL_Driver/Src/stm32l4xx_hal_dac.c ****     {
 1004              		.loc 1 962 8 view .LVU267
 1005 0010 12F4005F 		tst	r2, #8192
 1006 0014 09D1     		bne	.L72
 1007              	.LVL73:
 1008              	.L69:
 988:stm/stm32l4xx/STM32L4xx_HAL_Driver/Src/stm32l4xx_hal_dac.c ****   {
 1009              		.loc 1 988 3 is_stmt 1 view .LVU268
 988:stm/stm32l4xx/STM32L4xx_HAL_Driver/Src/stm32l4xx_hal_dac.c ****   {
 1010              		.loc 1 988 6 is_stmt 0 view .LVU269
 1011 0016 2368     		ldr	r3, [r4]
 1012 0018 1A68     		ldr	r2, [r3]
 988:stm/stm32l4xx/STM32L4xx_HAL_Driver/Src/stm32l4xx_hal_dac.c ****   {
ARM GAS  /tmp/cc1emfwg.s 			page 51


 1013              		.loc 1 988 5 view .LVU270
 1014 001a 12F0005F 		tst	r2, #536870912
 1015 001e 03D0     		beq	.L68
 991:stm/stm32l4xx/STM32L4xx_HAL_Driver/Src/stm32l4xx_hal_dac.c ****     {
 1016              		.loc 1 991 5 is_stmt 1 view .LVU271
 991:stm/stm32l4xx/STM32L4xx_HAL_Driver/Src/stm32l4xx_hal_dac.c ****     {
 1017              		.loc 1 991 9 is_stmt 0 view .LVU272
 1018 0020 5A6B     		ldr	r2, [r3, #52]
 991:stm/stm32l4xx/STM32L4xx_HAL_Driver/Src/stm32l4xx_hal_dac.c ****     {
 1019              		.loc 1 991 8 view .LVU273
 1020 0022 12F0005F 		tst	r2, #536870912
 1021 0026 11D1     		bne	.L73
 1022              	.L68:
1017:stm/stm32l4xx/STM32L4xx_HAL_Driver/Src/stm32l4xx_hal_dac.c **** 
 1023              		.loc 1 1017 1 view .LVU274
 1024 0028 10BD     		pop	{r4, pc}
 1025              	.LVL74:
 1026              	.L72:
 965:stm/stm32l4xx/STM32L4xx_HAL_Driver/Src/stm32l4xx_hal_dac.c **** 
 1027              		.loc 1 965 7 is_stmt 1 view .LVU275
 965:stm/stm32l4xx/STM32L4xx_HAL_Driver/Src/stm32l4xx_hal_dac.c **** 
 1028              		.loc 1 965 19 is_stmt 0 view .LVU276
 1029 002a 0422     		movs	r2, #4
 1030 002c 0271     		strb	r2, [r0, #4]
 968:stm/stm32l4xx/STM32L4xx_HAL_Driver/Src/stm32l4xx_hal_dac.c **** 
 1031              		.loc 1 968 7 is_stmt 1 view .LVU277
 1032 002e 0269     		ldr	r2, [r0, #16]
 1033 0030 42F00102 		orr	r2, r2, #1
 1034 0034 0261     		str	r2, [r0, #16]
 971:stm/stm32l4xx/STM32L4xx_HAL_Driver/Src/stm32l4xx_hal_dac.c **** 
 1035              		.loc 1 971 7 view .LVU278
 1036 0036 4FF40052 		mov	r2, #8192
 1037 003a 5A63     		str	r2, [r3, #52]
 974:stm/stm32l4xx/STM32L4xx_HAL_Driver/Src/stm32l4xx_hal_dac.c **** 
 1038              		.loc 1 974 7 view .LVU279
 1039 003c 0268     		ldr	r2, [r0]
 1040 003e 1368     		ldr	r3, [r2]
 1041 0040 23F48053 		bic	r3, r3, #4096
 1042 0044 1360     		str	r3, [r2]
 980:stm/stm32l4xx/STM32L4xx_HAL_Driver/Src/stm32l4xx_hal_dac.c **** #endif /* USE_HAL_DAC_REGISTER_CALLBACKS */
 1043              		.loc 1 980 7 view .LVU280
 1044 0046 FFF7FEFF 		bl	HAL_DAC_DMAUnderrunCallbackCh1
 1045              	.LVL75:
 980:stm/stm32l4xx/STM32L4xx_HAL_Driver/Src/stm32l4xx_hal_dac.c **** #endif /* USE_HAL_DAC_REGISTER_CALLBACKS */
 1046              		.loc 1 980 7 is_stmt 0 view .LVU281
 1047 004a E4E7     		b	.L69
 1048              	.L73:
 994:stm/stm32l4xx/STM32L4xx_HAL_Driver/Src/stm32l4xx_hal_dac.c **** 
 1049              		.loc 1 994 7 is_stmt 1 view .LVU282
 994:stm/stm32l4xx/STM32L4xx_HAL_Driver/Src/stm32l4xx_hal_dac.c **** 
 1050              		.loc 1 994 19 is_stmt 0 view .LVU283
 1051 004c 0422     		movs	r2, #4
 1052 004e 2271     		strb	r2, [r4, #4]
 997:stm/stm32l4xx/STM32L4xx_HAL_Driver/Src/stm32l4xx_hal_dac.c **** 
 1053              		.loc 1 997 7 is_stmt 1 view .LVU284
 1054 0050 2269     		ldr	r2, [r4, #16]
 1055 0052 42F00202 		orr	r2, r2, #2
ARM GAS  /tmp/cc1emfwg.s 			page 52


 1056 0056 2261     		str	r2, [r4, #16]
1000:stm/stm32l4xx/STM32L4xx_HAL_Driver/Src/stm32l4xx_hal_dac.c **** 
 1057              		.loc 1 1000 7 view .LVU285
 1058 0058 4FF00052 		mov	r2, #536870912
 1059 005c 5A63     		str	r2, [r3, #52]
1003:stm/stm32l4xx/STM32L4xx_HAL_Driver/Src/stm32l4xx_hal_dac.c **** 
 1060              		.loc 1 1003 7 view .LVU286
 1061 005e 2268     		ldr	r2, [r4]
 1062 0060 1368     		ldr	r3, [r2]
 1063 0062 23F08053 		bic	r3, r3, #268435456
 1064 0066 1360     		str	r3, [r2]
1009:stm/stm32l4xx/STM32L4xx_HAL_Driver/Src/stm32l4xx_hal_dac.c **** #endif /* USE_HAL_DAC_REGISTER_CALLBACKS */
 1065              		.loc 1 1009 7 view .LVU287
 1066 0068 2046     		mov	r0, r4
 1067 006a FFF7FEFF 		bl	HAL_DACEx_DMAUnderrunCallbackCh2
 1068              	.LVL76:
1017:stm/stm32l4xx/STM32L4xx_HAL_Driver/Src/stm32l4xx_hal_dac.c **** 
 1069              		.loc 1 1017 1 is_stmt 0 view .LVU288
 1070 006e DBE7     		b	.L68
 1071              		.cfi_endproc
 1072              	.LFE296:
 1074              		.section	.text.HAL_DAC_GetValue,"ax",%progbits
 1075              		.align	1
 1076              		.global	HAL_DAC_GetValue
 1077              		.syntax unified
 1078              		.thumb
 1079              		.thumb_func
 1081              	HAL_DAC_GetValue:
 1082              	.LVL77:
 1083              	.LFB302:
1155:stm/stm32l4xx/STM32L4xx_HAL_Driver/Src/stm32l4xx_hal_dac.c ****   /* Check the parameters */
 1084              		.loc 1 1155 1 is_stmt 1 view -0
 1085              		.cfi_startproc
 1086              		@ args = 0, pretend = 0, frame = 0
 1087              		@ frame_needed = 0, uses_anonymous_args = 0
 1088              		@ link register save eliminated.
1157:stm/stm32l4xx/STM32L4xx_HAL_Driver/Src/stm32l4xx_hal_dac.c **** 
 1089              		.loc 1 1157 3 view .LVU290
1171:stm/stm32l4xx/STM32L4xx_HAL_Driver/Src/stm32l4xx_hal_dac.c ****   {
 1090              		.loc 1 1171 3 view .LVU291
1171:stm/stm32l4xx/STM32L4xx_HAL_Driver/Src/stm32l4xx_hal_dac.c ****   {
 1091              		.loc 1 1171 5 is_stmt 0 view .LVU292
 1092 0000 11B9     		cbnz	r1, .L75
1173:stm/stm32l4xx/STM32L4xx_HAL_Driver/Src/stm32l4xx_hal_dac.c ****   }
 1093              		.loc 1 1173 5 is_stmt 1 view .LVU293
1173:stm/stm32l4xx/STM32L4xx_HAL_Driver/Src/stm32l4xx_hal_dac.c ****   }
 1094              		.loc 1 1173 16 is_stmt 0 view .LVU294
 1095 0002 0368     		ldr	r3, [r0]
1173:stm/stm32l4xx/STM32L4xx_HAL_Driver/Src/stm32l4xx_hal_dac.c ****   }
 1096              		.loc 1 1173 26 view .LVU295
 1097 0004 D86A     		ldr	r0, [r3, #44]
 1098              	.LVL78:
1173:stm/stm32l4xx/STM32L4xx_HAL_Driver/Src/stm32l4xx_hal_dac.c ****   }
 1099              		.loc 1 1173 26 view .LVU296
 1100 0006 7047     		bx	lr
 1101              	.LVL79:
 1102              	.L75:
ARM GAS  /tmp/cc1emfwg.s 			page 53


1177:stm/stm32l4xx/STM32L4xx_HAL_Driver/Src/stm32l4xx_hal_dac.c ****   }
 1103              		.loc 1 1177 5 is_stmt 1 view .LVU297
1177:stm/stm32l4xx/STM32L4xx_HAL_Driver/Src/stm32l4xx_hal_dac.c ****   }
 1104              		.loc 1 1177 16 is_stmt 0 view .LVU298
 1105 0008 0368     		ldr	r3, [r0]
1177:stm/stm32l4xx/STM32L4xx_HAL_Driver/Src/stm32l4xx_hal_dac.c ****   }
 1106              		.loc 1 1177 26 view .LVU299
 1107 000a 186B     		ldr	r0, [r3, #48]
 1108              	.LVL80:
1183:stm/stm32l4xx/STM32L4xx_HAL_Driver/Src/stm32l4xx_hal_dac.c **** 
 1109              		.loc 1 1183 1 view .LVU300
 1110 000c 7047     		bx	lr
 1111              		.cfi_endproc
 1112              	.LFE302:
 1114              		.section	.text.HAL_DAC_ConfigChannel,"ax",%progbits
 1115              		.align	1
 1116              		.global	HAL_DAC_ConfigChannel
 1117              		.syntax unified
 1118              		.thumb
 1119              		.thumb_func
 1121              	HAL_DAC_ConfigChannel:
 1122              	.LVL81:
 1123              	.LFB303:
1202:stm/stm32l4xx/STM32L4xx_HAL_Driver/Src/stm32l4xx_hal_dac.c ****   uint32_t tmpreg1;
 1124              		.loc 1 1202 1 is_stmt 1 view -0
 1125              		.cfi_startproc
 1126              		@ args = 0, pretend = 0, frame = 0
 1127              		@ frame_needed = 0, uses_anonymous_args = 0
1202:stm/stm32l4xx/STM32L4xx_HAL_Driver/Src/stm32l4xx_hal_dac.c ****   uint32_t tmpreg1;
 1128              		.loc 1 1202 1 is_stmt 0 view .LVU302
 1129 0000 F8B5     		push	{r3, r4, r5, r6, r7, lr}
 1130              	.LCFI21:
 1131              		.cfi_def_cfa_offset 24
 1132              		.cfi_offset 3, -24
 1133              		.cfi_offset 4, -20
 1134              		.cfi_offset 5, -16
 1135              		.cfi_offset 6, -12
 1136              		.cfi_offset 7, -8
 1137              		.cfi_offset 14, -4
1203:stm/stm32l4xx/STM32L4xx_HAL_Driver/Src/stm32l4xx_hal_dac.c ****   uint32_t tmpreg2;
 1138              		.loc 1 1203 3 is_stmt 1 view .LVU303
1204:stm/stm32l4xx/STM32L4xx_HAL_Driver/Src/stm32l4xx_hal_dac.c ****   uint32_t tickstart = 0U;
 1139              		.loc 1 1204 3 view .LVU304
1205:stm/stm32l4xx/STM32L4xx_HAL_Driver/Src/stm32l4xx_hal_dac.c **** #if defined (STM32L4P5xx) || defined (STM32L4Q5xx) || defined (STM32L4R5xx) || defined (STM32L4R7xx
 1140              		.loc 1 1205 3 view .LVU305
 1141              	.LVL82:
1214:stm/stm32l4xx/STM32L4xx_HAL_Driver/Src/stm32l4xx_hal_dac.c ****   assert_param(IS_DAC_OUTPUT_BUFFER_STATE(sConfig->DAC_OutputBuffer));
 1142              		.loc 1 1214 3 view .LVU306
1215:stm/stm32l4xx/STM32L4xx_HAL_Driver/Src/stm32l4xx_hal_dac.c ****   assert_param(IS_DAC_CHIP_CONNECTION(sConfig->DAC_ConnectOnChipPeripheral));
 1143              		.loc 1 1215 3 view .LVU307
1216:stm/stm32l4xx/STM32L4xx_HAL_Driver/Src/stm32l4xx_hal_dac.c ****   assert_param(IS_DAC_TRIMMING(sConfig->DAC_UserTrimming));
 1144              		.loc 1 1216 3 view .LVU308
1217:stm/stm32l4xx/STM32L4xx_HAL_Driver/Src/stm32l4xx_hal_dac.c ****   if ((sConfig->DAC_UserTrimming) == DAC_TRIMMING_USER)
 1145              		.loc 1 1217 3 view .LVU309
1218:stm/stm32l4xx/STM32L4xx_HAL_Driver/Src/stm32l4xx_hal_dac.c ****   {
 1146              		.loc 1 1218 3 view .LVU310
1220:stm/stm32l4xx/STM32L4xx_HAL_Driver/Src/stm32l4xx_hal_dac.c ****   }
ARM GAS  /tmp/cc1emfwg.s 			page 54


 1147              		.loc 1 1220 5 view .LVU311
1222:stm/stm32l4xx/STM32L4xx_HAL_Driver/Src/stm32l4xx_hal_dac.c ****   if ((sConfig->DAC_SampleAndHold) == DAC_SAMPLEANDHOLD_ENABLE)
 1148              		.loc 1 1222 3 view .LVU312
1223:stm/stm32l4xx/STM32L4xx_HAL_Driver/Src/stm32l4xx_hal_dac.c ****   {
 1149              		.loc 1 1223 3 view .LVU313
1225:stm/stm32l4xx/STM32L4xx_HAL_Driver/Src/stm32l4xx_hal_dac.c ****     assert_param(IS_DAC_HOLDTIME(sConfig->DAC_SampleAndHoldConfig.DAC_HoldTime));
 1150              		.loc 1 1225 5 view .LVU314
1226:stm/stm32l4xx/STM32L4xx_HAL_Driver/Src/stm32l4xx_hal_dac.c ****     assert_param(IS_DAC_REFRESHTIME(sConfig->DAC_SampleAndHoldConfig.DAC_RefreshTime));
 1151              		.loc 1 1226 5 view .LVU315
1227:stm/stm32l4xx/STM32L4xx_HAL_Driver/Src/stm32l4xx_hal_dac.c ****   }
 1152              		.loc 1 1227 5 view .LVU316
1229:stm/stm32l4xx/STM32L4xx_HAL_Driver/Src/stm32l4xx_hal_dac.c **** 
 1153              		.loc 1 1229 3 view .LVU317
1232:stm/stm32l4xx/STM32L4xx_HAL_Driver/Src/stm32l4xx_hal_dac.c **** 
 1154              		.loc 1 1232 3 view .LVU318
1232:stm/stm32l4xx/STM32L4xx_HAL_Driver/Src/stm32l4xx_hal_dac.c **** 
 1155              		.loc 1 1232 3 view .LVU319
 1156 0002 4379     		ldrb	r3, [r0, #5]	@ zero_extendqisi2
 1157 0004 012B     		cmp	r3, #1
 1158 0006 00F09E80 		beq	.L86
 1159 000a 0446     		mov	r4, r0
 1160 000c 0D46     		mov	r5, r1
 1161 000e 1646     		mov	r6, r2
1232:stm/stm32l4xx/STM32L4xx_HAL_Driver/Src/stm32l4xx_hal_dac.c **** 
 1162              		.loc 1 1232 3 discriminator 2 view .LVU320
 1163 0010 0123     		movs	r3, #1
 1164 0012 4371     		strb	r3, [r0, #5]
1232:stm/stm32l4xx/STM32L4xx_HAL_Driver/Src/stm32l4xx_hal_dac.c **** 
 1165              		.loc 1 1232 3 discriminator 2 view .LVU321
1235:stm/stm32l4xx/STM32L4xx_HAL_Driver/Src/stm32l4xx_hal_dac.c **** 
 1166              		.loc 1 1235 3 discriminator 2 view .LVU322
1235:stm/stm32l4xx/STM32L4xx_HAL_Driver/Src/stm32l4xx_hal_dac.c **** 
 1167              		.loc 1 1235 15 is_stmt 0 discriminator 2 view .LVU323
 1168 0014 0223     		movs	r3, #2
 1169 0016 0371     		strb	r3, [r0, #4]
1237:stm/stm32l4xx/STM32L4xx_HAL_Driver/Src/stm32l4xx_hal_dac.c ****   /* Sample on old configuration */
 1170              		.loc 1 1237 3 is_stmt 1 discriminator 2 view .LVU324
1237:stm/stm32l4xx/STM32L4xx_HAL_Driver/Src/stm32l4xx_hal_dac.c ****   /* Sample on old configuration */
 1171              		.loc 1 1237 14 is_stmt 0 discriminator 2 view .LVU325
 1172 0018 0B68     		ldr	r3, [r1]
1237:stm/stm32l4xx/STM32L4xx_HAL_Driver/Src/stm32l4xx_hal_dac.c ****   /* Sample on old configuration */
 1173              		.loc 1 1237 6 discriminator 2 view .LVU326
 1174 001a 042B     		cmp	r3, #4
 1175 001c 33D0     		beq	.L88
 1176              	.LVL83:
 1177              	.L79:
1302:stm/stm32l4xx/STM32L4xx_HAL_Driver/Src/stm32l4xx_hal_dac.c ****   /* USER TRIMMING */
